     1 00000000                                 [FORMAT "WCOFF"]
     2 00000000                                 [INSTRSET "i486p"]
     3 00000000                                 [OPTIMIZE 1]
     4 00000000                                 [OPTION 1]
     5 00000000                                 [BITS 32]
     6 00000000                                 	EXTERN	_init_gdtidt
     7 00000000                                 	EXTERN	_init_pic
     8 00000000                                 	EXTERN	_io_sti
     9 00000000                                 	EXTERN	_fifo32_init
    10 00000000                                 	EXTERN	_init_pit
    11 00000000                                 	EXTERN	_init_keyboard
    12 00000000                                 	EXTERN	_enable_mouse
    13 00000000                                 	EXTERN	_io_out8
    14 00000000                                 	EXTERN	_timer_alloc
    15 00000000                                 	EXTERN	_timer_init
    16 00000000                                 	EXTERN	_timer_settime
    17 00000000                                 	EXTERN	_memtest
    18 00000000                                 	EXTERN	_memman_init
    19 00000000                                 	EXTERN	_memman_free
    20 00000000                                 	EXTERN	_init_palette
    21 00000000                                 	EXTERN	_shtctl_init
    22 00000000                                 	EXTERN	_sheet_alloc
    23 00000000                                 	EXTERN	_memman_alloc_4k
    24 00000000                                 	EXTERN	_sheet_setbuf
    25 00000000                                 	EXTERN	_init_mouse_cursor8
    26 00000000                                 	EXTERN	_sheet_slide
    27 00000000                                 	EXTERN	_sheet_updown
    28 00000000                                 	EXTERN	_io_cli
    29 00000000                                 	EXTERN	_fifo32_status
    30 00000000                                 	EXTERN	_fifo32_get
    31 00000000                                 	EXTERN	_putfonts8_asc_sht
    32 00000000                                 	EXTERN	_sprintf
    33 00000000                                 	EXTERN	_sheet_refresh
    34 00000000                                 	EXTERN	_movesnake
    35 00000000                                 	EXTERN	_boxfill8
    36 00000000                                 	EXTERN	_mouse_decode
    37 00000000                                 	EXTERN	_initgameface
    38 00000000                                 	EXTERN	_RandFood
    39 00000000                                 	EXTERN	_strcmp
    40 00000000                                 	EXTERN	_init_screen8
    41 00000000                                 	EXTERN	_io_stihlt
    42 00000000                                 	EXTERN	_draw_button
    43 00000000                                 	EXTERN	_draw_cycle
    44 00000000                                 	EXTERN	_draw_arrow
    45 00000000                                 [FILE "bootpack.c"]
    46 00000000                                 	GLOBAL	_count
    47                                          [SECTION .data]
    48 00000000                                 	ALIGNB	4
    49 00000000                                 _count:
    50 00000000 00000000                        	DD	0
    51 00000004                                 	GLOBAL	_grade
    52 00000004                                 	ALIGNB	4
    53 00000004                                 _grade:
    54 00000004 00000000                        	DD	0
    55 00000008                                 	GLOBAL	_difficulty
    56 00000008                                 	ALIGNB	4
    57 00000008                                 _difficulty:
    58 00000008 00000002                        	DD	2
    59 0000000C                                 	GLOBAL	_dif
    60 0000000C                                 	ALIGNB	4
    61 0000000C                                 _dif:
    62 0000000C 00000014                        	DD	20
    63 00000010 0000000A                        	DD	10
    64 00000014 00000005                        	DD	5
    65 00000018                                 _keytable.0:
    66 00000018 00                              	DB	0
    67 00000019 00                              	DB	0
    68 0000001A 31                              	DB	49
    69 0000001B 32                              	DB	50
    70 0000001C 33                              	DB	51
    71 0000001D 34                              	DB	52
    72 0000001E 35                              	DB	53
    73 0000001F 36                              	DB	54
    74 00000020 37                              	DB	55
    75 00000021 38                              	DB	56
    76 00000022 39                              	DB	57
    77 00000023 30                              	DB	48
    78 00000024 2D                              	DB	45
    79 00000025 5E                              	DB	94
    80 00000026 00                              	DB	0
    81 00000027 00                              	DB	0
    82 00000028 51                              	DB	81
    83 00000029 57                              	DB	87
    84 0000002A 45                              	DB	69
    85 0000002B 52                              	DB	82
    86 0000002C 54                              	DB	84
    87 0000002D 59                              	DB	89
    88 0000002E 55                              	DB	85
    89 0000002F 49                              	DB	73
    90 00000030 4F                              	DB	79
    91 00000031 50                              	DB	80
    92 00000032 40                              	DB	64
    93 00000033 5B                              	DB	91
    94 00000034 00                              	DB	0
    95 00000035 00                              	DB	0
    96 00000036 41                              	DB	65
    97 00000037 53                              	DB	83
    98 00000038 44                              	DB	68
    99 00000039 46                              	DB	70
   100 0000003A 47                              	DB	71
   101 0000003B 48                              	DB	72
   102 0000003C 4A                              	DB	74
   103 0000003D 4B                              	DB	75
   104 0000003E 4C                              	DB	76
   105 0000003F 3B                              	DB	59
   106 00000040 3A                              	DB	58
   107 00000041 00                              	DB	0
   108 00000042 00                              	DB	0
   109 00000043 5D                              	DB	93
   110 00000044 5A                              	DB	90
   111 00000045 58                              	DB	88
   112 00000046 43                              	DB	67
   113 00000047 56                              	DB	86
   114 00000048 42                              	DB	66
   115 00000049 4E                              	DB	78
   116 0000004A 4D                              	DB	77
   117 0000004B 2C                              	DB	44
   118 0000004C 2E                              	DB	46
   119 0000004D 2F                              	DB	47
   120 0000004E 00                              	DB	0
   121 0000004F 2A                              	DB	42
   122 00000050 00                              	DB	0
   123 00000051 20                              	DB	32
   124 00000052 00                              	DB	0
   125 00000053 00                              	DB	0
   126 00000054 00                              	DB	0
   127 00000055 00                              	DB	0
   128 00000056 00                              	DB	0
   129 00000057 00                              	DB	0
   130 00000058 00                              	DB	0
   131 00000059 00                              	DB	0
   132 0000005A 00                              	DB	0
   133 0000005B 00                              	DB	0
   134 0000005C 00                              	DB	0
   135 0000005D 00                              	DB	0
   136 0000005E 00                              	DB	0
   137 0000005F 37                              	DB	55
   138 00000060 38                              	DB	56
   139 00000061 39                              	DB	57
   140 00000062 2D                              	DB	45
   141 00000063 34                              	DB	52
   142 00000064 35                              	DB	53
   143 00000065 36                              	DB	54
   144 00000066 2B                              	DB	43
   145 00000067 31                              	DB	49
   146 00000068 32                              	DB	50
   147 00000069 33                              	DB	51
   148 0000006A 30                              	DB	48
   149 0000006B 2E                              	DB	46
   150 0000006C                                 LC0:
   151 0000006C 4A 45 52 52 59 00               	DB	"JERRY",0x00
   152 00000072 00 00 00 00 00 00 00 00 00 00   	RESB	24
       0000007C 00 00 00 00 00 00 00 00 00 00 
       00000086 00 00 00 00 
   153 0000008A                                 LC1:
   154 0000008A 00                              	DB	0x00
   155 0000008B 00 00 00 00 00 00 00 00 00 00   	RESB	29
       00000095 00 00 00 00 00 00 00 00 00 00 
       0000009F 00 00 00 00 00 00 00 00 00 
   156 000000A8                                 LC2:
   157 000000A8 53 6E 61 6B 65 00               	DB	"Snake",0x00
   158 000000AE                                 LC6:
   159 000000AE 2A 00                           	DB	"*",0x00
   160 000000B0                                 LC7:
   161 000000B0 28 25 64 29 00                  	DB	"(%d)",0x00
   162 000000B5                                 LC5:
   163 000000B5 25 64 3A 25 64 3A 25 64 00      	DB	"%d:%d:%d",0x00
   164 000000BE                                 LC4:
   165 000000BE 4A 65 72 72 79 5F 4F 53 00      	DB	"Jerry_OS",0x00
   166 000000C7                                 LC3:
   167 000000C7 00                              	DB	0x00
   168                                          [SECTION .text]
   169 00000000                                 	GLOBAL	_HariMain
   170 00000000                                 _HariMain:
   171 00000000 55                              	PUSH	EBP
   172 00000001 B9 00000006                     	MOV	ECX,6
   173 00000006 89 E5                           	MOV	EBP,ESP
   174 00000008 57                              	PUSH	EDI
   175 00000009 56                              	PUSH	ESI
   176 0000000A 53                              	PUSH	EBX
   177 0000000B 8D BD FFFFFC3A                  	LEA	EDI,DWORD [-966+EBP]
   178 00000011 81 EC 0000045C                  	SUB	ESP,1116
   179 00000017 A1 [0000006C]                   	MOV	EAX,DWORD [LC0]
   180 0000001C FC                              	CLD
   181 0000001D 89 85 FFFFFC34                  	MOV	DWORD [-972+EBP],EAX
   182 00000023 66 A1 [00000070]                	MOV	AX,WORD [LC0+4]
   183 00000029 66 89 85 FFFFFC38               	MOV	WORD [-968+EBP],AX
   184 00000030 31 C0                           	XOR	EAX,EAX
   185 00000032 C7 85 FFFFFC10 00000001         	MOV	DWORD [-1008+EBP],1
   186 0000003C C7 85 FFFFFC0C 00000000         	MOV	DWORD [-1012+EBP],0
   187 00000046 C7 85 FFFFFBFC 00000008         	MOV	DWORD [-1028+EBP],8
   188 00000050 C7 85 FFFFFBF8 00000000         	MOV	DWORD [-1032+EBP],0
   189 0000005A C7 85 FFFFFBF0 00015176         	MOV	DWORD [-1040+EBP],86390
   190 00000064 C7 85 FFFFFBEC 00000003         	MOV	DWORD [-1044+EBP],3
   191 0000006E F3                              	REP
   192 0000006F AB                              	STOSD
   193 00000070 A0 [0000008A]                   	MOV	AL,BYTE [LC1]
   194 00000075 8D BD FFFFFC15                  	LEA	EDI,DWORD [-1003+EBP]
   195 0000007B 88 85 FFFFFC14                  	MOV	BYTE [-1004+EBP],AL
   196 00000081 B9 0000001D                     	MOV	ECX,29
   197 00000086 31 C0                           	XOR	EAX,EAX
   198 00000088 F3                              	REP
   199 00000089 AA                              	STOSB
   200 0000008A E8 [00000000]                   	CALL	_init_gdtidt
   201 0000008F E8 [00000000]                   	CALL	_init_pic
   202 00000094 E8 [00000000]                   	CALL	_io_sti
   203 00000099 8D 85 FFFFFDB4                  	LEA	EAX,DWORD [-588+EBP]
   204 0000009F 50                              	PUSH	EAX
   205 000000A0 68 00000080                     	PUSH	128
   206 000000A5 68 [00005F90]                   	PUSH	_fifo
   207 000000AA E8 [00000000]                   	CALL	_fifo32_init
   208 000000AF E8 [00000000]                   	CALL	_init_pit
   209 000000B4 68 00000100                     	PUSH	256
   210 000000B9 68 [00005F90]                   	PUSH	_fifo
   211 000000BE E8 [00000000]                   	CALL	_init_keyboard
   212 000000C3 8D 85 FFFFFD54                  	LEA	EAX,DWORD [-684+EBP]
   213 000000C9 50                              	PUSH	EAX
   214 000000CA 68 00000200                     	PUSH	512
   215 000000CF 68 [00005F90]                   	PUSH	_fifo
   216 000000D4 E8 [00000000]                   	CALL	_enable_mouse
   217 000000D9 83 C4 20                        	ADD	ESP,32
   218 000000DC 68 000000F8                     	PUSH	248
   219 000000E1 6A 21                           	PUSH	33
   220 000000E3 E8 [00000000]                   	CALL	_io_out8
   221 000000E8 68 000000EF                     	PUSH	239
   222 000000ED 68 000000A1                     	PUSH	161
   223 000000F2 E8 [00000000]                   	CALL	_io_out8
   224 000000F7 E8 [00000000]                   	CALL	_timer_alloc
   225 000000FC 6A 05                           	PUSH	5
   226 000000FE 68 [00005F90]                   	PUSH	_fifo
   227 00000103 89 C3                           	MOV	EBX,EAX
   228 00000105 50                              	PUSH	EAX
   229 00000106 E8 [00000000]                   	CALL	_timer_init
   230 0000010B 68 000001F4                     	PUSH	500
   231 00000110 53                              	PUSH	EBX
   232 00000111 E8 [00000000]                   	CALL	_timer_settime
   233 00000116 83 C4 24                        	ADD	ESP,36
   234 00000119 E8 [00000000]                   	CALL	_timer_alloc
   235 0000011E 6A 01                           	PUSH	1
   236 00000120 68 [00005F90]                   	PUSH	_fifo
   237 00000125 89 85 FFFFFC08                  	MOV	DWORD [-1016+EBP],EAX
   238 0000012B 50                              	PUSH	EAX
   239 0000012C E8 [00000000]                   	CALL	_timer_init
   240 00000131 6A 32                           	PUSH	50
   241 00000133 FF B5 FFFFFC08                  	PUSH	DWORD [-1016+EBP]
   242 00000139 E8 [00000000]                   	CALL	_timer_settime
   243 0000013E 8D 85 FFFFFD64                  	LEA	EAX,DWORD [-668+EBP]
   244 00000144 6A 19                           	PUSH	25
   245 00000146 6A 14                           	PUSH	20
   246 00000148 50                              	PUSH	EAX
   247 00000149 E8 00001A8D                     	CALL	_init_kaijitimer
   248 0000014E 83 C4 20                        	ADD	ESP,32
   249 00000151 E8 [00000000]                   	CALL	_timer_alloc
   250 00000156 6A 19                           	PUSH	25
   251 00000158 A3 [00005FA8]                   	MOV	DWORD [_timer4],EAX
   252 0000015D 68 [00005F90]                   	PUSH	_fifo
   253 00000162 50                              	PUSH	EAX
   254 00000163 E8 [00000000]                   	CALL	_timer_init
   255 00000168 E8 [00000000]                   	CALL	_timer_alloc
   256 0000016D 6A 1E                           	PUSH	30
   257 0000016F 68 [00005F90]                   	PUSH	_fifo
   258 00000174 50                              	PUSH	EAX
   259 00000175 89 85 FFFFFC04                  	MOV	DWORD [-1020+EBP],EAX
   260 0000017B E8 [00000000]                   	CALL	_timer_init
   261 00000180 E8 [00000000]                   	CALL	_timer_alloc
   262 00000185 6A 1F                           	PUSH	31
   263 00000187 68 [00005F90]                   	PUSH	_fifo
   264 0000018C 50                              	PUSH	EAX
   265 0000018D E8 [00000000]                   	CALL	_timer_init
   266 00000192 83 C4 24                        	ADD	ESP,36
   267 00000195 E8 [00000000]                   	CALL	_timer_alloc
   268 0000019A 6A 20                           	PUSH	32
   269 0000019C 68 [00005F90]                   	PUSH	_fifo
   270 000001A1 89 85 FFFFFC00                  	MOV	DWORD [-1024+EBP],EAX
   271 000001A7 50                              	PUSH	EAX
   272 000001A8 E8 [00000000]                   	CALL	_timer_init
   273 000001AD 68 BFFFFFFF                     	PUSH	-1073741825
   274 000001B2 68 00400000                     	PUSH	4194304
   275 000001B7 E8 [00000000]                   	CALL	_memtest
   276 000001BC 68 003C0000                     	PUSH	3932160
   277 000001C1 89 C3                           	MOV	EBX,EAX
   278 000001C3 E8 [00000000]                   	CALL	_memman_init
   279 000001C8 68 0009E000                     	PUSH	647168
   280 000001CD 68 00001000                     	PUSH	4096
   281 000001D2 68 003C0000                     	PUSH	3932160
   282 000001D7 E8 [00000000]                   	CALL	_memman_free
   283 000001DC 8D 83 FFC00000                  	LEA	EAX,DWORD [-4194304+EBX]
   284 000001E2 83 C4 24                        	ADD	ESP,36
   285 000001E5 50                              	PUSH	EAX
   286 000001E6 68 00400000                     	PUSH	4194304
   287 000001EB 68 003C0000                     	PUSH	3932160
   288 000001F0 E8 [00000000]                   	CALL	_memman_free
   289 000001F5 E8 [00000000]                   	CALL	_init_palette
   290 000001FA 0F BF 05 00000FF6               	MOVSX	EAX,WORD [4086]
   291 00000201 50                              	PUSH	EAX
   292 00000202 0F BF 05 00000FF4               	MOVSX	EAX,WORD [4084]
   293 00000209 50                              	PUSH	EAX
   294 0000020A FF 35 00000FF8                  	PUSH	DWORD [4088]
   295 00000210 68 003C0000                     	PUSH	3932160
   296 00000215 E8 [00000000]                   	CALL	_shtctl_init
   297 0000021A 89 C3                           	MOV	EBX,EAX
   298 0000021C 50                              	PUSH	EAX
   299 0000021D E8 [00000000]                   	CALL	_sheet_alloc
   300 00000222 83 C4 20                        	ADD	ESP,32
   301 00000225 53                              	PUSH	EBX
   302 00000226 89 85 FFFFFBE8                  	MOV	DWORD [-1048+EBP],EAX
   303 0000022C E8 [00000000]                   	CALL	_sheet_alloc
   304 00000231 53                              	PUSH	EBX
   305 00000232 89 85 FFFFFBE4                  	MOV	DWORD [-1052+EBP],EAX
   306 00000238 E8 [00000000]                   	CALL	_sheet_alloc
   307 0000023D 53                              	PUSH	EBX
   308 0000023E 89 85 FFFFFBE0                  	MOV	DWORD [-1056+EBP],EAX
   309 00000244 E8 [00000000]                   	CALL	_sheet_alloc
   310 00000249 53                              	PUSH	EBX
   311 0000024A 89 85 FFFFFBDC                  	MOV	DWORD [-1060+EBP],EAX
   312 00000250 E8 [00000000]                   	CALL	_sheet_alloc
   313 00000255 53                              	PUSH	EBX
   314 00000256 89 85 FFFFFBD8                  	MOV	DWORD [-1064+EBP],EAX
   315 0000025C E8 [00000000]                   	CALL	_sheet_alloc
   316 00000261 53                              	PUSH	EBX
   317 00000262 89 C6                           	MOV	ESI,EAX
   318 00000264 E8 [00000000]                   	CALL	_sheet_alloc
   319 00000269 53                              	PUSH	EBX
   320 0000026A 8D 9D FFFFFC54                  	LEA	EBX,DWORD [-940+EBP]
   321 00000270 89 85 FFFFFBD4                  	MOV	DWORD [-1068+EBP],EAX
   322 00000276 E8 [00000000]                   	CALL	_sheet_alloc
   323 0000027B 0F BF 15 00000FF6               	MOVSX	EDX,WORD [4086]
   324 00000282 89 85 FFFFFBD0                  	MOV	DWORD [-1072+EBP],EAX
   325 00000288 0F BF 05 00000FF4               	MOVSX	EAX,WORD [4084]
   326 0000028F 0F AF C2                        	IMUL	EAX,EDX
   327 00000292 50                              	PUSH	EAX
   328 00000293 68 003C0000                     	PUSH	3932160
   329 00000298 E8 [00000000]                   	CALL	_memman_alloc_4k
   330 0000029D 83 C4 24                        	ADD	ESP,36
   331 000002A0 68 00002080                     	PUSH	8320
   332 000002A5 89 85 FFFFFBCC                  	MOV	DWORD [-1076+EBP],EAX
   333 000002AB 68 003C0000                     	PUSH	3932160
   334 000002B0 E8 [00000000]                   	CALL	_memman_alloc_4k
   335 000002B5 68 00027100                     	PUSH	160000
   336 000002BA 68 003C0000                     	PUSH	3932160
   337 000002BF 89 C7                           	MOV	EDI,EAX
   338 000002C1 E8 [00000000]                   	CALL	_memman_alloc_4k
   339 000002C6 68 00027100                     	PUSH	160000
   340 000002CB 68 003C0000                     	PUSH	3932160
   341 000002D0 89 85 FFFFFBC8                  	MOV	DWORD [-1080+EBP],EAX
   342 000002D6 E8 [00000000]                   	CALL	_memman_alloc_4k
   343 000002DB 68 0006DDD0                     	PUSH	450000
   344 000002E0 68 003C0000                     	PUSH	3932160
   345 000002E5 89 85 FFFFFBC4                  	MOV	DWORD [-1084+EBP],EAX
   346 000002EB E8 [00000000]                   	CALL	_memman_alloc_4k
   347 000002F0 83 C4 20                        	ADD	ESP,32
   348 000002F3 68 000001CE                     	PUSH	462
   349 000002F8 89 85 FFFFFBC0                  	MOV	DWORD [-1088+EBP],EAX
   350 000002FE 68 003C0000                     	PUSH	3932160
   351 00000303 E8 [00000000]                   	CALL	_memman_alloc_4k
   352 00000308 68 00002710                     	PUSH	10000
   353 0000030D 68 003C0000                     	PUSH	3932160
   354 00000312 89 85 FFFFFBBC                  	MOV	DWORD [-1092+EBP],EAX
   355 00000318 E8 [00000000]                   	CALL	_memman_alloc_4k
   356 0000031D 6A FF                           	PUSH	-1
   357 0000031F 89 85 FFFFFBB8                  	MOV	DWORD [-1096+EBP],EAX
   358 00000325 0F BF 05 00000FF6               	MOVSX	EAX,WORD [4086]
   359 0000032C 50                              	PUSH	EAX
   360 0000032D 0F BF 05 00000FF4               	MOVSX	EAX,WORD [4084]
   361 00000334 50                              	PUSH	EAX
   362 00000335 FF B5 FFFFFBCC                  	PUSH	DWORD [-1076+EBP]
   363 0000033B FF B5 FFFFFBE8                  	PUSH	DWORD [-1048+EBP]
   364 00000341 E8 [00000000]                   	CALL	_sheet_setbuf
   365 00000346 83 C4 24                        	ADD	ESP,36
   366 00000349 6A 63                           	PUSH	99
   367 0000034B 6A 10                           	PUSH	16
   368 0000034D 6A 10                           	PUSH	16
   369 0000034F 53                              	PUSH	EBX
   370 00000350 FF B5 FFFFFBE4                  	PUSH	DWORD [-1052+EBP]
   371 00000356 E8 [00000000]                   	CALL	_sheet_setbuf
   372 0000035B 6A FF                           	PUSH	-1
   373 0000035D 6A 34                           	PUSH	52
   374 0000035F 68 000000A0                     	PUSH	160
   375 00000364 57                              	PUSH	EDI
   376 00000365 BF 00000002                     	MOV	EDI,2
   377 0000036A FF B5 FFFFFBE0                  	PUSH	DWORD [-1056+EBP]
   378 00000370 E8 [00000000]                   	CALL	_sheet_setbuf
   379 00000375 83 C4 28                        	ADD	ESP,40
   380 00000378 6A FF                           	PUSH	-1
   381 0000037A 68 00000190                     	PUSH	400
   382 0000037F 68 00000190                     	PUSH	400
   383 00000384 FF B5 FFFFFBC8                  	PUSH	DWORD [-1080+EBP]
   384 0000038A FF B5 FFFFFBDC                  	PUSH	DWORD [-1060+EBP]
   385 00000390 E8 [00000000]                   	CALL	_sheet_setbuf
   386 00000395 6A FF                           	PUSH	-1
   387 00000397 68 00000190                     	PUSH	400
   388 0000039C 68 00000190                     	PUSH	400
   389 000003A1 FF B5 FFFFFBC4                  	PUSH	DWORD [-1084+EBP]
   390 000003A7 FF B5 FFFFFBD8                  	PUSH	DWORD [-1064+EBP]
   391 000003AD E8 [00000000]                   	CALL	_sheet_setbuf
   392 000003B2 83 C4 28                        	ADD	ESP,40
   393 000003B5 6A FF                           	PUSH	-1
   394 000003B7 68 000001F4                     	PUSH	500
   395 000003BC 68 00000384                     	PUSH	900
   396 000003C1 FF B5 FFFFFBC0                  	PUSH	DWORD [-1088+EBP]
   397 000003C7 56                              	PUSH	ESI
   398 000003C8 E8 [00000000]                   	CALL	_sheet_setbuf
   399 000003CD 6A FF                           	PUSH	-1
   400 000003CF 6A 16                           	PUSH	22
   401 000003D1 6A 15                           	PUSH	21
   402 000003D3 FF B5 FFFFFBBC                  	PUSH	DWORD [-1092+EBP]
   403 000003D9 FF B5 FFFFFBD4                  	PUSH	DWORD [-1068+EBP]
   404 000003DF E8 [00000000]                   	CALL	_sheet_setbuf
   405 000003E4 83 C4 28                        	ADD	ESP,40
   406 000003E7 6A FF                           	PUSH	-1
   407 000003E9 6A 64                           	PUSH	100
   408 000003EB 6A 64                           	PUSH	100
   409 000003ED FF B5 FFFFFBB8                  	PUSH	DWORD [-1096+EBP]
   410 000003F3 FF B5 FFFFFBD0                  	PUSH	DWORD [-1072+EBP]
   411 000003F9 E8 [00000000]                   	CALL	_sheet_setbuf
   412 000003FE 6A 63                           	PUSH	99
   413 00000400 53                              	PUSH	EBX
   414 00000401 E8 [00000000]                   	CALL	_init_mouse_cursor8
   415 00000406 68 [000000A8]                   	PUSH	LC2
   416 0000040B 68 000002BC                     	PUSH	700
   417 00000410 68 00000384                     	PUSH	900
   418 00000415 56                              	PUSH	ESI
   419 00000416 E8 00000F22                     	CALL	_make_game8
   420 0000041B 83 C4 2C                        	ADD	ESP,44
   421 0000041E 6A 07                           	PUSH	7
   422 00000420 6A 10                           	PUSH	16
   423 00000422 68 00000090                     	PUSH	144
   424 00000427 6A 1C                           	PUSH	28
   425 00000429 6A 08                           	PUSH	8
   426 0000042B FF B5 FFFFFBE0                  	PUSH	DWORD [-1056+EBP]
   427 00000431 E8 0000130D                     	CALL	_make_textbox8
   428 00000436 6A 00                           	PUSH	0
   429 00000438 6A 14                           	PUSH	20
   430 0000043A 68 00000190                     	PUSH	400
   431 0000043F FF B5 FFFFFBDC                  	PUSH	DWORD [-1060+EBP]
   432 00000445 E8 0000142F                     	CALL	_make_kaiji
   433 0000044A 83 C4 28                        	ADD	ESP,40
   434 0000044D 68 00000190                     	PUSH	400
   435 00000452 68 00000190                     	PUSH	400
   436 00000457 FF B5 FFFFFBD8                  	PUSH	DWORD [-1064+EBP]
   437 0000045D E8 000015F1                     	CALL	_make_acount
   438 00000462 6A 18                           	PUSH	24
   439 00000464 6A 15                           	PUSH	21
   440 00000466 FF B5 FFFFFBBC                  	PUSH	DWORD [-1092+EBP]
   441 0000046C E8 00001855                     	CALL	_make_window2
   442 00000471 FF B5 FFFFFBD0                  	PUSH	DWORD [-1072+EBP]
   443 00000477 E8 00001A05                     	CALL	_make_pause
   444 0000047C 6A 00                           	PUSH	0
   445 0000047E 6A 00                           	PUSH	0
   446 00000480 FF B5 FFFFFBE8                  	PUSH	DWORD [-1048+EBP]
   447 00000486 E8 [00000000]                   	CALL	_sheet_slide
   448 0000048B 83 C4 28                        	ADD	ESP,40
   449 0000048E 0F BF 05 00000FF4               	MOVSX	EAX,WORD [4084]
   450 00000495 8D 48 F0                        	LEA	ECX,DWORD [-16+EAX]
   451 00000498 89 C8                           	MOV	EAX,ECX
   452 0000049A 99                              	CDQ
   453 0000049B F7 FF                           	IDIV	EDI
   454 0000049D 89 C1                           	MOV	ECX,EAX
   455 0000049F A3 [00005FAC]                   	MOV	DWORD [_mx],EAX
   456 000004A4 0F BF 05 00000FF6               	MOVSX	EAX,WORD [4086]
   457 000004AB 83 E8 2C                        	SUB	EAX,44
   458 000004AE 99                              	CDQ
   459 000004AF F7 FF                           	IDIV	EDI
   460 000004B1 50                              	PUSH	EAX
   461 000004B2 A3 [00005FB0]                   	MOV	DWORD [_my],EAX
   462 000004B7 51                              	PUSH	ECX
   463 000004B8 FF B5 FFFFFBE4                  	PUSH	DWORD [-1052+EBP]
   464 000004BE E8 [00000000]                   	CALL	_sheet_slide
   465 000004C3 6A 48                           	PUSH	72
   466 000004C5 6A 50                           	PUSH	80
   467 000004C7 FF B5 FFFFFBE0                  	PUSH	DWORD [-1056+EBP]
   468 000004CD E8 [00000000]                   	CALL	_sheet_slide
   469 000004D2 68 000000A4                     	PUSH	164
   470 000004D7 68 0000014C                     	PUSH	332
   471 000004DC FF B5 FFFFFBDC                  	PUSH	DWORD [-1060+EBP]
   472 000004E2 E8 [00000000]                   	CALL	_sheet_slide
   473 000004E7 83 C4 24                        	ADD	ESP,36
   474 000004EA 68 000000B8                     	PUSH	184
   475 000004EF 68 00000138                     	PUSH	312
   476 000004F4 FF B5 FFFFFBD8                  	PUSH	DWORD [-1064+EBP]
   477 000004FA E8 [00000000]                   	CALL	_sheet_slide
   478 000004FF 6A 32                           	PUSH	50
   479 00000501 6A 32                           	PUSH	50
   480 00000503 56                              	PUSH	ESI
   481 00000504 E8 [00000000]                   	CALL	_sheet_slide
   482 00000509 0F BF 05 00000FF6               	MOVSX	EAX,WORD [4086]
   483 00000510 83 E8 18                        	SUB	EAX,24
   484 00000513 50                              	PUSH	EAX
   485 00000514 6A 46                           	PUSH	70
   486 00000516 FF B5 FFFFFBD4                  	PUSH	DWORD [-1068+EBP]
   487 0000051C E8 [00000000]                   	CALL	_sheet_slide
   488 00000521 83 C4 24                        	ADD	ESP,36
   489 00000524 68 000000FA                     	PUSH	250
   490 00000529 68 000001A4                     	PUSH	420
   491 0000052E FF B5 FFFFFBD0                  	PUSH	DWORD [-1072+EBP]
   492 00000534 E8 [00000000]                   	CALL	_sheet_slide
   493 00000539 6A FF                           	PUSH	-1
   494 0000053B FF B5 FFFFFBE8                  	PUSH	DWORD [-1048+EBP]
   495 00000541 E8 [00000000]                   	CALL	_sheet_updown
   496 00000546 6A FF                           	PUSH	-1
   497 00000548 FF B5 FFFFFBE0                  	PUSH	DWORD [-1056+EBP]
   498 0000054E E8 [00000000]                   	CALL	_sheet_updown
   499 00000553 6A FF                           	PUSH	-1
   500 00000555 FF B5 FFFFFBE4                  	PUSH	DWORD [-1052+EBP]
   501 0000055B E8 [00000000]                   	CALL	_sheet_updown
   502 00000560 83 C4 24                        	ADD	ESP,36
   503 00000563 6A 01                           	PUSH	1
   504 00000565 FF B5 FFFFFBDC                  	PUSH	DWORD [-1060+EBP]
   505 0000056B E8 [00000000]                   	CALL	_sheet_updown
   506 00000570 6A FF                           	PUSH	-1
   507 00000572 FF B5 FFFFFBD8                  	PUSH	DWORD [-1064+EBP]
   508 00000578 E8 [00000000]                   	CALL	_sheet_updown
   509 0000057D 6A FF                           	PUSH	-1
   510 0000057F 56                              	PUSH	ESI
   511 00000580 E8 [00000000]                   	CALL	_sheet_updown
   512 00000585 6A FF                           	PUSH	-1
   513 00000587 FF B5 FFFFFBD4                  	PUSH	DWORD [-1068+EBP]
   514 0000058D E8 [00000000]                   	CALL	_sheet_updown
   515 00000592 83 C4 20                        	ADD	ESP,32
   516 00000595 6A FF                           	PUSH	-1
   517 00000597 FF B5 FFFFFBD0                  	PUSH	DWORD [-1072+EBP]
   518 0000059D E8 [00000000]                   	CALL	_sheet_updown
   519 000005A2 5B                              	POP	EBX
   520 000005A3 C7 85 FFFFFBB0 00000000         	MOV	DWORD [-1104+EBP],0
   521 000005AD C7 85 FFFFFBAC 00000000         	MOV	DWORD [-1108+EBP],0
   522 000005B7 C7 85 FFFFFBA8 00000000         	MOV	DWORD [-1112+EBP],0
   523 000005C1 5F                              	POP	EDI
   524 000005C2                                 L2:
   525 000005C2 FF 05 [00000000]                	INC	DWORD [_count]
   526 000005C8 E8 [00000000]                   	CALL	_io_cli
   527 000005CD 68 [00005F90]                   	PUSH	_fifo
   528 000005D2 E8 [00000000]                   	CALL	_fifo32_status
   529 000005D7 59                              	POP	ECX
   530 000005D8 85 C0                           	TEST	EAX,EAX
   531 000005DA 0F 84 00000D53                  	JE	L141
   532 000005E0 68 [00005F90]                   	PUSH	_fifo
   533 000005E5 E8 [00000000]                   	CALL	_fifo32_get
   534 000005EA 89 C3                           	MOV	EBX,EAX
   535 000005EC E8 [00000000]                   	CALL	_io_sti
   536 000005F1 5A                              	POP	EDX
   537 000005F2 8D 83 FFFFFF00                  	LEA	EAX,DWORD [-256+EBX]
   538 000005F8 3D 000000FF                     	CMP	EAX,255
   539 000005FD 0F 86 000008A1                  	JBE	L142
   540 00000603 8D 83 FFFFFE00                  	LEA	EAX,DWORD [-512+EBX]
   541 00000609 3D 000000FF                     	CMP	EAX,255
   542 0000060E 0F 86 000003D2                  	JBE	L143
   543 00000614 83 FB 05                        	CMP	EBX,5
   544 00000617 0F 84 00000329                  	JE	L144
   545 0000061D 83 FB 01                        	CMP	EBX,1
   546 00000620 0F 8E 00000275                  	JLE	L145
   547 00000626 8D 43 CE                        	LEA	EAX,DWORD [-50+EBX]
   548 00000629 83 F8 13                        	CMP	EAX,19
   549 0000062C 0F 86 00000233                  	JBE	L146
   550 00000632 83 FB 19                        	CMP	EBX,25
   551 00000635 0F 84 000001AD                  	JE	L147
   552 0000063B 83 FB 1A                        	CMP	EBX,26
   553 0000063E 0F 84 00000195                  	JE	L148
   554 00000644 83 FB 1E                        	CMP	EBX,30
   555 00000647 74 7E                           	JE	L149
   556 00000649 83 FB 20                        	CMP	EBX,32
   557 0000064C 75 5D                           	JNE	L50
   558 0000064E 83 BD FFFFFC0C 00               	CMP	DWORD [-1012+EBP],0
   559 00000655 0F 84 FFFFFF67                  	JE	L2
   560 0000065B 6A 1E                           	PUSH	30
   561 0000065D BB 00000026                     	MOV	EBX,38
   562 00000662 FF B5 FFFFFC00                  	PUSH	DWORD [-1024+EBP]
   563 00000668 E8 [00000000]                   	CALL	_timer_settime
   564 0000066D 58                              	POP	EAX
   565 0000066E 8B 85 FFFFFBFC                  	MOV	EAX,DWORD [-1028+EBP]
   566 00000674 5A                              	POP	EDX
   567 00000675 83 C0 1E                        	ADD	EAX,30
   568 00000678 39 C3                           	CMP	EBX,EAX
   569 0000067A 7D 2F                           	JGE	L50
   570 0000067C                                 L125:
   571 0000067C 6A 01                           	PUSH	1
   572 0000067E 68 [000000AE]                   	PUSH	LC6
   573 00000683 6A 07                           	PUSH	7
   574 00000685 6A 00                           	PUSH	0
   575 00000687 68 00000136                     	PUSH	310
   576 0000068C 53                              	PUSH	EBX
   577 0000068D 83 C3 08                        	ADD	EBX,8
   578 00000690 FF B5 FFFFFBD8                  	PUSH	DWORD [-1064+EBP]
   579 00000696 E8 [00000000]                   	CALL	_putfonts8_asc_sht
   580 0000069B 8B 85 FFFFFBFC                  	MOV	EAX,DWORD [-1028+EBP]
   581 000006A1 83 C0 1E                        	ADD	EAX,30
   582 000006A4 83 C4 1C                        	ADD	ESP,28
   583 000006A7 39 C3                           	CMP	EBX,EAX
   584 000006A9 7C D1                           	JL	L125
   585 000006AB                                 L50:
   586 000006AB FF 35 [00000000]                	PUSH	DWORD [_count]
   587 000006B1 68 [000000B0]                   	PUSH	LC7
   588 000006B6 8D 45 C4                        	LEA	EAX,DWORD [-60+EBP]
   589 000006B9 50                              	PUSH	EAX
   590 000006BA E8 [00000000]                   	CALL	_sprintf
   591 000006BF 83 C4 0C                        	ADD	ESP,12
   592 000006C2 E9 FFFFFEFB                     	JMP	L2
   593 000006C7                                 L149:
   594 000006C7 FF 85 FFFFFBF0                  	INC	DWORD [-1040+EBP]
   595 000006CD B9 0000003C                     	MOV	ECX,60
   596 000006D2 8B 85 FFFFFBF0                  	MOV	EAX,DWORD [-1040+EBP]
   597 000006D8 99                              	CDQ
   598 000006D9 F7 F9                           	IDIV	ECX
   599 000006DB 89 D7                           	MOV	EDI,EDX
   600 000006DD 99                              	CDQ
   601 000006DE F7 F9                           	IDIV	ECX
   602 000006E0 8B 85 FFFFFBF0                  	MOV	EAX,DWORD [-1040+EBP]
   603 000006E6 89 95 FFFFFBF4                  	MOV	DWORD [-1036+EBP],EDX
   604 000006EC BA 00000E10                     	MOV	EDX,3600
   605 000006F1 57                              	PUSH	EDI
   606 000006F2 89 D1                           	MOV	ECX,EDX
   607 000006F4 99                              	CDQ
   608 000006F5 F7 F9                           	IDIV	ECX
   609 000006F7 B9 00000018                     	MOV	ECX,24
   610 000006FC 89 85 FFFFFB9C                  	MOV	DWORD [-1124+EBP],EAX
   611 00000702 99                              	CDQ
   612 00000703 F7 F9                           	IDIV	ECX
   613 00000705 FF B5 FFFFFBF4                  	PUSH	DWORD [-1036+EBP]
   614 0000070B 52                              	PUSH	EDX
   615 0000070C 8D 45 C4                        	LEA	EAX,DWORD [-60+EBP]
   616 0000070F 68 [000000B5]                   	PUSH	LC5
   617 00000714 89 D3                           	MOV	EBX,EDX
   618 00000716 50                              	PUSH	EAX
   619 00000717 E8 [00000000]                   	CALL	_sprintf
   620 0000071C 6A 08                           	PUSH	8
   621 0000071E 89 D8                           	MOV	EAX,EBX
   622 00000720 B9 0000000A                     	MOV	ECX,10
   623 00000725 99                              	CDQ
   624 00000726 F7 F9                           	IDIV	ECX
   625 00000728 89 95 FFFFFB98                  	MOV	DWORD [-1128+EBP],EDX
   626 0000072E BB 0000000A                     	MOV	EBX,10
   627 00000733 8D 40 30                        	LEA	EAX,DWORD [48+EAX]
   628 00000736 88 45 B4                        	MOV	BYTE [-76+EBP],AL
   629 00000739 8A 85 FFFFFB98                  	MOV	AL,BYTE [-1128+EBP]
   630 0000073F 83 C0 30                        	ADD	EAX,48
   631 00000742 88 45 B5                        	MOV	BYTE [-75+EBP],AL
   632 00000745 8B 85 FFFFFBF4                  	MOV	EAX,DWORD [-1036+EBP]
   633 0000074B 99                              	CDQ
   634 0000074C F7 FB                           	IDIV	EBX
   635 0000074E 89 85 FFFFFBA0                  	MOV	DWORD [-1120+EBP],EAX
   636 00000754 8A 85 FFFFFBA0                  	MOV	AL,BYTE [-1120+EBP]
   637 0000075A 83 C0 30                        	ADD	EAX,48
   638 0000075D 88 45 B7                        	MOV	BYTE [-73+EBP],AL
   639 00000760 8D 42 30                        	LEA	EAX,DWORD [48+EDX]
   640 00000763 88 45 B8                        	MOV	BYTE [-72+EBP],AL
   641 00000766 89 F8                           	MOV	EAX,EDI
   642 00000768 99                              	CDQ
   643 00000769 F7 FB                           	IDIV	EBX
   644 0000076B C6 45 B9 3A                     	MOV	BYTE [-71+EBP],58
   645 0000076F 8D 40 30                        	LEA	EAX,DWORD [48+EAX]
   646 00000772 88 45 BA                        	MOV	BYTE [-70+EBP],AL
   647 00000775 8D 42 30                        	LEA	EAX,DWORD [48+EDX]
   648 00000778 88 45 BB                        	MOV	BYTE [-69+EBP],AL
   649 0000077B 8B 95 FFFFFBE8                  	MOV	EDX,DWORD [-1048+EBP]
   650 00000781 8D 45 B4                        	LEA	EAX,DWORD [-76+EBP]
   651 00000784 50                              	PUSH	EAX
   652 00000785 6A 08                           	PUSH	8
   653 00000787 6A 00                           	PUSH	0
   654 00000789 C6 45 B6 3A                     	MOV	BYTE [-74+EBP],58
   655 0000078D 8B 42 08                        	MOV	EAX,DWORD [8+EDX]
   656 00000790 83 E8 14                        	SUB	EAX,20
   657 00000793 50                              	PUSH	EAX
   658 00000794 8B 42 04                        	MOV	EAX,DWORD [4+EDX]
   659 00000797 83 E8 4B                        	SUB	EAX,75
   660 0000079A 50                              	PUSH	EAX
   661 0000079B 52                              	PUSH	EDX
   662 0000079C E8 [00000000]                   	CALL	_putfonts8_asc_sht
   663 000007A1 83 C4 30                        	ADD	ESP,48
   664 000007A4 6A 64                           	PUSH	100
   665 000007A6 FF B5 FFFFFC04                  	PUSH	DWORD [-1020+EBP]
   666 000007AC E8 [00000000]                   	CALL	_timer_settime
   667 000007B1 8B 8D FFFFFBE8                  	MOV	ECX,DWORD [-1048+EBP]
   668 000007B7 FF 71 08                        	PUSH	DWORD [8+ECX]
   669 000007BA FF 71 04                        	PUSH	DWORD [4+ECX]
   670 000007BD 8B 41 08                        	MOV	EAX,DWORD [8+ECX]
   671 000007C0 83 E8 12                        	SUB	EAX,18
   672 000007C3 50                              	PUSH	EAX
   673 000007C4 8B 41 04                        	MOV	EAX,DWORD [4+ECX]
   674 000007C7 83 E8 50                        	SUB	EAX,80
   675 000007CA 50                              	PUSH	EAX
   676 000007CB 51                              	PUSH	ECX
   677 000007CC                                 L134:
   678 000007CC E8 [00000000]                   	CALL	_sheet_refresh
   679 000007D1                                 L136:
   680 000007D1 83 C4 1C                        	ADD	ESP,28
   681 000007D4 E9 FFFFFED2                     	JMP	L50
   682 000007D9                                 L148:
   683 000007D9 C7 85 FFFFFC10 00000006         	MOV	DWORD [-1008+EBP],6
   684 000007E3 E9 FFFFFEC3                     	JMP	L50
   685 000007E8                                 L147:
   686 000007E8 83 BD FFFFFC10 05               	CMP	DWORD [-1008+EBP],5
   687 000007EF 0F 85 FFFFFEB6                  	JNE	L50
   688 000007F5 83 BD FFFFFBEC 02               	CMP	DWORD [-1044+EBP],2
   689 000007FC 74 63                           	JE	L108
   690 000007FE 83 BD FFFFFBEC 02               	CMP	DWORD [-1044+EBP],2
   691 00000805 7F 3C                           	JG	L113
   692 00000807 83 BD FFFFFBEC 01               	CMP	DWORD [-1044+EBP],1
   693 0000080E 74 24                           	JE	L107
   694 00000810                                 L106:
   695 00000810 A1 [00000008]                   	MOV	EAX,DWORD [_difficulty]
   696 00000815 FF 34 85 [00000008]             	PUSH	DWORD [_dif-4+EAX*4]
   697 0000081C FF 35 [00005FA8]                	PUSH	DWORD [_timer4]
   698 00000822 E8 [00000000]                   	CALL	_timer_settime
   699 00000827 FF 76 08                        	PUSH	DWORD [8+ESI]
   700 0000082A FF 76 04                        	PUSH	DWORD [4+ESI]
   701 0000082D 6A 00                           	PUSH	0
   702 0000082F 6A 00                           	PUSH	0
   703 00000831 56                              	PUSH	ESI
   704 00000832 EB 98                           	JMP	L134
   705 00000834                                 L107:
   706 00000834 6A FF                           	PUSH	-1
   707 00000836                                 L133:
   708 00000836 6A 00                           	PUSH	0
   709 00000838                                 L132:
   710 00000838 56                              	PUSH	ESI
   711 00000839 E8 [00000000]                   	CALL	_movesnake
   712 0000083E 83 C4 0C                        	ADD	ESP,12
   713 00000841 EB CD                           	JMP	L106
   714 00000843                                 L113:
   715 00000843 83 BD FFFFFBEC 03               	CMP	DWORD [-1044+EBP],3
   716 0000084A 74 0F                           	JE	L109
   717 0000084C 83 BD FFFFFBEC 04               	CMP	DWORD [-1044+EBP],4
   718 00000853 75 BB                           	JNE	L106
   719 00000855 6A 00                           	PUSH	0
   720 00000857 6A FF                           	PUSH	-1
   721 00000859 EB DD                           	JMP	L132
   722 0000085B                                 L109:
   723 0000085B 6A 00                           	PUSH	0
   724 0000085D 6A 01                           	PUSH	1
   725 0000085F EB D7                           	JMP	L132
   726 00000861                                 L108:
   727 00000861 6A 01                           	PUSH	1
   728 00000863 EB D1                           	JMP	L133
   729 00000865                                 L146:
   730 00000865 50                              	PUSH	EAX
   731 00000866 6A 00                           	PUSH	0
   732 00000868 6A 14                           	PUSH	20
   733 0000086A 68 00000190                     	PUSH	400
   734 0000086F FF B5 FFFFFBDC                  	PUSH	DWORD [-1060+EBP]
   735 00000875 E8 00000FFF                     	CALL	_make_kaiji
   736 0000087A 68 00000190                     	PUSH	400
   737 0000087F 68 00000190                     	PUSH	400
   738 00000884 6A 00                           	PUSH	0
   739 00000886 6A 00                           	PUSH	0
   740 00000888 FF B5 FFFFFBDC                  	PUSH	DWORD [-1060+EBP]
   741 0000088E                                 L138:
   742 0000088E E8 [00000000]                   	CALL	_sheet_refresh
   743 00000893 83 C4 28                        	ADD	ESP,40
   744 00000896 E9 FFFFFE10                     	JMP	L50
   745 0000089B                                 L145:
   746 0000089B 83 BD FFFFFC10 02               	CMP	DWORD [-1008+EBP],2
   747 000008A2 0F 85 FFFFFE03                  	JNE	L50
   748 000008A8 85 DB                           	TEST	EBX,EBX
   749 000008AA 74 7E                           	JE	L94
   750 000008AC 6A 00                           	PUSH	0
   751 000008AE 31 FF                           	XOR	EDI,EDI
   752 000008B0 68 [00005F90]                   	PUSH	_fifo
   753 000008B5 FF B5 FFFFFC08                  	PUSH	DWORD [-1016+EBP]
   754 000008BB E8 [00000000]                   	CALL	_timer_init
   755 000008C0                                 L131:
   756 000008C0 83 C4 0C                        	ADD	ESP,12
   757 000008C3 6A 32                           	PUSH	50
   758 000008C5 FF B5 FFFFFC08                  	PUSH	DWORD [-1016+EBP]
   759 000008CB E8 [00000000]                   	CALL	_timer_settime
   760 000008D0 8B 95 FFFFFBD8                  	MOV	EDX,DWORD [-1064+EBP]
   761 000008D6 8B 85 FFFFFBFC                  	MOV	EAX,DWORD [-1028+EBP]
   762 000008DC 68 00000145                     	PUSH	325
   763 000008E1 83 C0 25                        	ADD	EAX,37
   764 000008E4 8B 9D FFFFFBFC                  	MOV	EBX,DWORD [-1028+EBP]
   765 000008EA 50                              	PUSH	EAX
   766 000008EB 83 C3 1E                        	ADD	EBX,30
   767 000008EE 68 00000136                     	PUSH	310
   768 000008F3 53                              	PUSH	EBX
   769 000008F4 57                              	PUSH	EDI
   770 000008F5 FF 72 04                        	PUSH	DWORD [4+EDX]
   771 000008F8 FF 32                           	PUSH	DWORD [EDX]
   772 000008FA E8 [00000000]                   	CALL	_boxfill8
   773 000008FF 8B 85 FFFFFBFC                  	MOV	EAX,DWORD [-1028+EBP]
   774 00000905 83 C4 24                        	ADD	ESP,36
   775 00000908 83 C0 26                        	ADD	EAX,38
   776 0000090B 68 0000014A                     	PUSH	330
   777 00000910 50                              	PUSH	EAX
   778 00000911 68 00000136                     	PUSH	310
   779 00000916 53                              	PUSH	EBX
   780 00000917 FF B5 FFFFFBD8                  	PUSH	DWORD [-1064+EBP]
   781 0000091D E8 [00000000]                   	CALL	_sheet_refresh
   782 00000922 83 C4 14                        	ADD	ESP,20
   783 00000925 E9 FFFFFD81                     	JMP	L50
   784 0000092A                                 L94:
   785 0000092A 6A 01                           	PUSH	1
   786 0000092C BF 00000007                     	MOV	EDI,7
   787 00000931 68 [00005F90]                   	PUSH	_fifo
   788 00000936 FF B5 FFFFFC08                  	PUSH	DWORD [-1016+EBP]
   789 0000093C E8 [00000000]                   	CALL	_timer_init
   790 00000941 E9 FFFFFF7A                     	JMP	L131
   791 00000946                                 L144:
   792 00000946 0F BF 05 00000FF6               	MOVSX	EAX,WORD [4086]
   793 0000094D 50                              	PUSH	EAX
   794 0000094E 0F BF 05 00000FF4               	MOVSX	EAX,WORD [4084]
   795 00000955 50                              	PUSH	EAX
   796 00000956 6A 00                           	PUSH	0
   797 00000958 6A 00                           	PUSH	0
   798 0000095A 6A 0E                           	PUSH	14
   799 0000095C 0F BF 05 00000FF4               	MOVSX	EAX,WORD [4084]
   800 00000963 50                              	PUSH	EAX
   801 00000964 FF B5 FFFFFBCC                  	PUSH	DWORD [-1076+EBP]
   802 0000096A E8 [00000000]                   	CALL	_boxfill8
   803 0000096F 6A FF                           	PUSH	-1
   804 00000971 FF B5 FFFFFBDC                  	PUSH	DWORD [-1060+EBP]
   805 00000977 E8 [00000000]                   	CALL	_sheet_updown
   806 0000097C 83 C4 24                        	ADD	ESP,36
   807 0000097F 6A 01                           	PUSH	1
   808 00000981 FF B5 FFFFFBE8                  	PUSH	DWORD [-1048+EBP]
   809 00000987 E8 [00000000]                   	CALL	_sheet_updown
   810 0000098C 6A 02                           	PUSH	2
   811 0000098E FF B5 FFFFFBD8                  	PUSH	DWORD [-1064+EBP]
   812 00000994 E8 [00000000]                   	CALL	_sheet_updown
   813 00000999 6A 03                           	PUSH	3
   814 0000099B FF B5 FFFFFBE4                  	PUSH	DWORD [-1052+EBP]
   815 000009A1 E8 [00000000]                   	CALL	_sheet_updown
   816 000009A6 0F BF 05 00000FF6               	MOVSX	EAX,WORD [4086]
   817 000009AD 50                              	PUSH	EAX
   818 000009AE 0F BF 05 00000FF4               	MOVSX	EAX,WORD [4084]
   819 000009B5 50                              	PUSH	EAX
   820 000009B6 6A 00                           	PUSH	0
   821 000009B8 6A 00                           	PUSH	0
   822 000009BA FF B5 FFFFFBCC                  	PUSH	DWORD [-1076+EBP]
   823 000009C0 E8 [00000000]                   	CALL	_sheet_refresh
   824 000009C5 83 C4 2C                        	ADD	ESP,44
   825 000009C8 6A 32                           	PUSH	50
   826 000009CA FF B5 FFFFFC08                  	PUSH	DWORD [-1016+EBP]
   827 000009D0 E8 [00000000]                   	CALL	_timer_settime
   828 000009D5 59                              	POP	ECX
   829 000009D6 5B                              	POP	EBX
   830 000009D7 C7 85 FFFFFC10 00000002         	MOV	DWORD [-1008+EBP],2
   831 000009E1 E9 FFFFFCC5                     	JMP	L50
   832 000009E6                                 L143:
   833 000009E6 0F B6 C3                        	MOVZX	EAX,BL
   834 000009E9 50                              	PUSH	EAX
   835 000009EA 8D 85 FFFFFD54                  	LEA	EAX,DWORD [-684+EBP]
   836 000009F0 50                              	PUSH	EAX
   837 000009F1 E8 [00000000]                   	CALL	_mouse_decode
   838 000009F6 59                              	POP	ECX
   839 000009F7 5B                              	POP	EBX
   840 000009F8 85 C0                           	TEST	EAX,EAX
   841 000009FA 0F 84 FFFFFBC2                  	JE	L2
   842 00000A00 8B 56 04                        	MOV	EDX,DWORD [4+ESI]
   843 00000A03 A1 [00005FAC]                   	MOV	EAX,DWORD [_mx]
   844 00000A08 8B 0D [00005FB0]                	MOV	ECX,DWORD [_my]
   845 00000A0E 89 C7                           	MOV	EDI,EAX
   846 00000A10 89 CB                           	MOV	EBX,ECX
   847 00000A12 89 95 FFFFFBA4                  	MOV	DWORD [-1116+EBP],EDX
   848 00000A18 8B 95 FFFFFD60                  	MOV	EDX,DWORD [-672+EBP]
   849 00000A1E 2B 7E 0C                        	SUB	EDI,DWORD [12+ESI]
   850 00000A21 2B 5E 10                        	SUB	EBX,DWORD [16+ESI]
   851 00000A24 F7 C2 00000001                  	TEST	EDX,1
   852 00000A2A 74 04                           	JE	L53
   853 00000A2C C6 45 C5 4C                     	MOV	BYTE [-59+EBP],76
   854 00000A30                                 L53:
   855 00000A30 F7 C2 00000002                  	TEST	EDX,2
   856 00000A36 74 04                           	JE	L54
   857 00000A38 C6 45 C7 52                     	MOV	BYTE [-57+EBP],82
   858 00000A3C                                 L54:
   859 00000A3C 83 E2 04                        	AND	EDX,4
   860 00000A3F 74 04                           	JE	L55
   861 00000A41 C6 45 C6 43                     	MOV	BYTE [-58+EBP],67
   862 00000A45                                 L55:
   863 00000A45 89 CA                           	MOV	EDX,ECX
   864 00000A47 03 85 FFFFFD58                  	ADD	EAX,DWORD [-680+EBP]
   865 00000A4D 03 95 FFFFFD5C                  	ADD	EDX,DWORD [-676+EBP]
   866 00000A53 A3 [00005FAC]                   	MOV	DWORD [_mx],EAX
   867 00000A58 89 15 [00005FB0]                	MOV	DWORD [_my],EDX
   868 00000A5E 85 C0                           	TEST	EAX,EAX
   869 00000A60 0F 88 0000042F                  	JS	L150
   870 00000A66                                 L56:
   871 00000A66 85 D2                           	TEST	EDX,EDX
   872 00000A68 0F 88 00000418                  	JS	L151
   873 00000A6E                                 L57:
   874 00000A6E 0F BF 05 00000FF4               	MOVSX	EAX,WORD [4084]
   875 00000A75 48                              	DEC	EAX
   876 00000A76 39 05 [00005FAC]                	CMP	DWORD [_mx],EAX
   877 00000A7C 7E 05                           	JLE	L58
   878 00000A7E A3 [00005FAC]                   	MOV	DWORD [_mx],EAX
   879 00000A83                                 L58:
   880 00000A83 0F BF 05 00000FF6               	MOVSX	EAX,WORD [4086]
   881 00000A8A 48                              	DEC	EAX
   882 00000A8B 39 05 [00005FB0]                	CMP	DWORD [_my],EAX
   883 00000A91 7E 05                           	JLE	L59
   884 00000A93 A3 [00005FB0]                   	MOV	DWORD [_my],EAX
   885 00000A98                                 L59:
   886 00000A98 8B 85 FFFFFC10                  	MOV	EAX,DWORD [-1008+EBP]
   887 00000A9E 48                              	DEC	EAX
   888 00000A9F 83 F8 06                        	CMP	EAX,6
   889 00000AA2 0F 87 FFFFFC03                  	JA	L50
   890 00000AA8 FF 24 85 [000000C8]             	JMP	DWORD [L86+EAX*4]
   891                                          [SECTION .data]
   892 000000C8                                 	ALIGNB	4
   893 000000C8                                 L86:
   894 000000C8 [000006AB]                      	DD	L50
   895 000000CC [00000AB5]                      	DD	L84
   896 000000D0 [00000AAF]                      	DD	L63
   897 000000D4 [00000B55]                      	DD	L67
   898 000000D8 [00000AB5]                      	DD	L84
   899 000000DC [00000D8F]                      	DD	L81
   900 000000E0 [00000AB5]                      	DD	L84
   901                                          [SECTION .text]
   902 00000AAF                                 L63:
   903 00000AAF 80 7D C5 4C                     	CMP	BYTE [-59+EBP],76
   904 00000AB3 74 1F                           	JE	L152
   905 00000AB5                                 L84:
   906 00000AB5 FF 35 [00005FB0]                	PUSH	DWORD [_my]
   907 00000ABB FF 35 [00005FAC]                	PUSH	DWORD [_mx]
   908 00000AC1 FF B5 FFFFFBE4                  	PUSH	DWORD [-1052+EBP]
   909 00000AC7 E8 [00000000]                   	CALL	_sheet_slide
   910 00000ACC 83 C4 0C                        	ADD	ESP,12
   911 00000ACF E9 FFFFFBD7                     	JMP	L50
   912 00000AD4                                 L152:
   913 00000AD4 A1 [00005FAC]                   	MOV	EAX,DWORD [_mx]
   914 00000AD9 83 F8 09                        	CMP	EAX,9
   915 00000ADC 7E D7                           	JLE	L84
   916 00000ADE 3D 00000113                     	CMP	EAX,275
   917 00000AE3 7F D0                           	JG	L84
   918 00000AE5 A1 [00005FB0]                   	MOV	EAX,DWORD [_my]
   919 00000AEA 83 F8 09                        	CMP	EAX,9
   920 00000AED 7E C6                           	JLE	L84
   921 00000AEF 3D 000000C0                     	CMP	EAX,192
   922 00000AF4 7F BF                           	JG	L84
   923 00000AF6 8B 15 [00000000]                	MOV	EDX,DWORD [_count]
   924 00000AFC 89 D0                           	MOV	EAX,EDX
   925 00000AFE 2B 85 FFFFFBF8                  	SUB	EAX,DWORD [-1032+EBP]
   926 00000B04 83 F8 32                        	CMP	EAX,50
   927 00000B07 7F 41                           	JG	L65
   928 00000B09 6A FF                           	PUSH	-1
   929 00000B0B FF B5 FFFFFBE4                  	PUSH	DWORD [-1052+EBP]
   930 00000B11 C7 85 FFFFFC10 00000004         	MOV	DWORD [-1008+EBP],4
   931 00000B1B E8 [00000000]                   	CALL	_sheet_updown
   932 00000B20 6A 02                           	PUSH	2
   933 00000B22 56                              	PUSH	ESI
   934 00000B23 E8 [00000000]                   	CALL	_sheet_updown
   935 00000B28 6A 03                           	PUSH	3
   936 00000B2A FF B5 FFFFFBE4                  	PUSH	DWORD [-1052+EBP]
   937 00000B30 E8 [00000000]                   	CALL	_sheet_updown
   938 00000B35 6A 02                           	PUSH	2
   939 00000B37 FF B5 FFFFFBD4                  	PUSH	DWORD [-1068+EBP]
   940 00000B3D E8 [00000000]                   	CALL	_sheet_updown
   941 00000B42 83 C4 20                        	ADD	ESP,32
   942 00000B45 E9 FFFFFF6B                     	JMP	L84
   943 00000B4A                                 L65:
   944 00000B4A 89 95 FFFFFBF8                  	MOV	DWORD [-1032+EBP],EDX
   945 00000B50 E9 FFFFFF60                     	JMP	L84
   946 00000B55                                 L67:
   947 00000B55 8D 47 9C                        	LEA	EAX,DWORD [-100+EDI]
   948 00000B58 3D 0000009A                     	CMP	EAX,154
   949 00000B5D 77 14                           	JA	L68
   950 00000B5F 83 FB 63                        	CMP	EBX,99
   951 00000B62 7E 0F                           	JLE	L68
   952 00000B64 83 FB 7C                        	CMP	EBX,124
   953 00000B67 7F 0A                           	JG	L68
   954 00000B69 80 7D C5 4C                     	CMP	BYTE [-59+EBP],76
   955 00000B6D 0F 84 000001C5                  	JE	L153
   956 00000B73                                 L68:
   957 00000B73 8B 85 FFFFFBA4                  	MOV	EAX,DWORD [-1116+EBP]
   958 00000B79 83 E8 2A                        	SUB	EAX,42
   959 00000B7C 39 F8                           	CMP	EAX,EDI
   960 00000B7E 7F 21                           	JG	L69
   961 00000B80 8B 85 FFFFFBA4                  	MOV	EAX,DWORD [-1116+EBP]
   962 00000B86 83 E8 1A                        	SUB	EAX,26
   963 00000B89 39 C7                           	CMP	EDI,EAX
   964 00000B8B 7F 14                           	JG	L69
   965 00000B8D 83 FB 04                        	CMP	EBX,4
   966 00000B90 7E 0F                           	JLE	L69
   967 00000B92 83 FB 13                        	CMP	EBX,19
   968 00000B95 7F 0A                           	JG	L69
   969 00000B97 80 7D C5 4C                     	CMP	BYTE [-59+EBP],76
   970 00000B9B 0F 84 0000017E                  	JE	L154
   971 00000BA1                                 L69:
   972 00000BA1 8B 85 FFFFFBA4                  	MOV	EAX,DWORD [-1116+EBP]
   973 00000BA7 83 E8 15                        	SUB	EAX,21
   974 00000BAA 39 F8                           	CMP	EAX,EDI
   975 00000BAC 7F 21                           	JG	L70
   976 00000BAE 8B 85 FFFFFBA4                  	MOV	EAX,DWORD [-1116+EBP]
   977 00000BB4 83 E8 05                        	SUB	EAX,5
   978 00000BB7 39 C7                           	CMP	EDI,EAX
   979 00000BB9 7F 14                           	JG	L70
   980 00000BBB 83 FB 04                        	CMP	EBX,4
   981 00000BBE 7E 0F                           	JLE	L70
   982 00000BC0 83 FB 13                        	CMP	EBX,19
   983 00000BC3 7F 0A                           	JG	L70
   984 00000BC5 80 7D C5 4C                     	CMP	BYTE [-59+EBP],76
   985 00000BC9 0F 84 00000129                  	JE	L155
   986 00000BCF                                 L70:
   987 00000BCF 8D 87 FFFFFEFC                  	LEA	EAX,DWORD [-260+EDI]
   988 00000BD5 83 F8 2A                        	CMP	EAX,42
   989 00000BD8 77 1A                           	JA	L71
   990 00000BDA 81 FB 000000EF                  	CMP	EBX,239
   991 00000BE0 7E 12                           	JLE	L71
   992 00000BE2 81 FB 00000104                  	CMP	EBX,260
   993 00000BE8 7F 0A                           	JG	L71
   994 00000BEA 80 7D C5 4C                     	CMP	BYTE [-59+EBP],76
   995 00000BEE 0F 84 000000F7                  	JE	L156
   996 00000BF4                                 L71:
   997 00000BF4 8D 87 FFFFFE98                  	LEA	EAX,DWORD [-360+EDI]
   998 00000BFA 83 F8 1C                        	CMP	EAX,28
   999 00000BFD 77 1A                           	JA	L73
  1000 00000BFF 81 FB 000000EF                  	CMP	EBX,239
  1001 00000C05 7E 12                           	JLE	L73
  1002 00000C07 81 FB 00000104                  	CMP	EBX,260
  1003 00000C0D 7F 0A                           	JG	L73
  1004 00000C0F 80 7D C5 4C                     	CMP	BYTE [-59+EBP],76
  1005 00000C13 0F 84 0000009A                  	JE	L157
  1006 00000C19                                 L73:
  1007 00000C19 80 7D C5 4C                     	CMP	BYTE [-59+EBP],76
  1008 00000C1D 74 0F                           	JE	L158
  1009 00000C1F                                 L76:
  1010 00000C1F C7 85 FFFFFBB0 00000000         	MOV	DWORD [-1104+EBP],0
  1011 00000C29 E9 FFFFFE87                     	JMP	L84
  1012 00000C2E                                 L158:
  1013 00000C2E 85 FF                           	TEST	EDI,EDI
  1014 00000C30 78 ED                           	JS	L76
  1015 00000C32 3B BD FFFFFBA4                  	CMP	EDI,DWORD [-1116+EBP]
  1016 00000C38 7F E5                           	JG	L76
  1017 00000C3A 85 DB                           	TEST	EBX,EBX
  1018 00000C3C 78 E1                           	JS	L76
  1019 00000C3E 83 FB 12                        	CMP	EBX,18
  1020 00000C41 7F DC                           	JG	L76
  1021 00000C43 83 BD FFFFFBB0 01               	CMP	DWORD [-1104+EBP],1
  1022 00000C4A 74 26                           	JE	L159
  1023 00000C4C 8B 3D [00005FAC]                	MOV	EDI,DWORD [_mx]
  1024 00000C52 A1 [00005FB0]                   	MOV	EAX,DWORD [_my]
  1025 00000C57 89 BD FFFFFBAC                  	MOV	DWORD [-1108+EBP],EDI
  1026 00000C5D 89 85 FFFFFBA8                  	MOV	DWORD [-1112+EBP],EAX
  1027 00000C63                                 L78:
  1028 00000C63 C7 85 FFFFFBB0 00000001         	MOV	DWORD [-1104+EBP],1
  1029 00000C6D E9 FFFFFE43                     	JMP	L84
  1030 00000C72                                 L159:
  1031 00000C72 A1 [00005FB0]                   	MOV	EAX,DWORD [_my]
  1032 00000C77 03 46 10                        	ADD	EAX,DWORD [16+ESI]
  1033 00000C7A 2B 85 FFFFFBA8                  	SUB	EAX,DWORD [-1112+EBP]
  1034 00000C80 50                              	PUSH	EAX
  1035 00000C81 A1 [00005FAC]                   	MOV	EAX,DWORD [_mx]
  1036 00000C86 03 46 0C                        	ADD	EAX,DWORD [12+ESI]
  1037 00000C89 2B 85 FFFFFBAC                  	SUB	EAX,DWORD [-1108+EBP]
  1038 00000C8F 50                              	PUSH	EAX
  1039 00000C90 56                              	PUSH	ESI
  1040 00000C91 E8 [00000000]                   	CALL	_sheet_slide
  1041 00000C96 83 C4 0C                        	ADD	ESP,12
  1042 00000C99 8B 0D [00005FAC]                	MOV	ECX,DWORD [_mx]
  1043 00000C9F 8B 1D [00005FB0]                	MOV	EBX,DWORD [_my]
  1044 00000CA5 89 8D FFFFFBAC                  	MOV	DWORD [-1108+EBP],ECX
  1045 00000CAB 89 9D FFFFFBA8                  	MOV	DWORD [-1112+EBP],EBX
  1046 00000CB1 EB B0                           	JMP	L78
  1047 00000CB3                                 L157:
  1048 00000CB3 A1 [00000008]                   	MOV	EAX,DWORD [_difficulty]
  1049 00000CB8 83 F8 02                        	CMP	EAX,2
  1050 00000CBB 7F 06                           	JG	L75
  1051 00000CBD 40                              	INC	EAX
  1052 00000CBE                                 L140:
  1053 00000CBE A3 [00000008]                   	MOV	DWORD [_difficulty],EAX
  1054 00000CC3                                 L75:
  1055 00000CC3 56                              	PUSH	ESI
  1056 00000CC4 E8 0000097F                     	CALL	_refresh_button
  1057 00000CC9 68 000000F0                     	PUSH	240
  1058 00000CCE 68 00000190                     	PUSH	400
  1059 00000CD3 68 000000C8                     	PUSH	200
  1060 00000CD8 68 00000140                     	PUSH	320
  1061 00000CDD 56                              	PUSH	ESI
  1062 00000CDE E8 [00000000]                   	CALL	_sheet_refresh
  1063 00000CE3 83 C4 18                        	ADD	ESP,24
  1064 00000CE6 E9 FFFFFF2E                     	JMP	L73
  1065 00000CEB                                 L156:
  1066 00000CEB A1 [00000008]                   	MOV	EAX,DWORD [_difficulty]
  1067 00000CF0 83 F8 01                        	CMP	EAX,1
  1068 00000CF3 7E CE                           	JLE	L75
  1069 00000CF5 48                              	DEC	EAX
  1070 00000CF6 EB C6                           	JMP	L140
  1071 00000CF8                                 L155:
  1072 00000CF8 6A FF                           	PUSH	-1
  1073 00000CFA 56                              	PUSH	ESI
  1074 00000CFB E8 [00000000]                   	CALL	_sheet_updown
  1075 00000D00 6A FF                           	PUSH	-1
  1076 00000D02 FF B5 FFFFFBD4                  	PUSH	DWORD [-1068+EBP]
  1077 00000D08 E8 [00000000]                   	CALL	_sheet_updown
  1078 00000D0D 83 C4 10                        	ADD	ESP,16
  1079 00000D10 C7 85 FFFFFC10 00000003         	MOV	DWORD [-1008+EBP],3
  1080 00000D1A E9 FFFFFEB0                     	JMP	L70
  1081 00000D1F                                 L154:
  1082 00000D1F 6A FF                           	PUSH	-1
  1083 00000D21 56                              	PUSH	ESI
  1084 00000D22 E8 [00000000]                   	CALL	_sheet_updown
  1085 00000D27 58                              	POP	EAX
  1086 00000D28 C7 85 FFFFFC10 00000003         	MOV	DWORD [-1008+EBP],3
  1087 00000D32 5A                              	POP	EDX
  1088 00000D33 E9 FFFFFE69                     	JMP	L69
  1089 00000D38                                 L153:
  1090 00000D38 56                              	PUSH	ESI
  1091 00000D39 C7 85 FFFFFC10 00000005         	MOV	DWORD [-1008+EBP],5
  1092 00000D43 C7 85 FFFFFBEC 00000003         	MOV	DWORD [-1044+EBP],3
  1093 00000D4D E8 [00000000]                   	CALL	_initgameface
  1094 00000D52 6A 19                           	PUSH	25
  1095 00000D54 68 [00005F90]                   	PUSH	_fifo
  1096 00000D59 FF 35 [00005FA8]                	PUSH	DWORD [_timer4]
  1097 00000D5F E8 [00000000]                   	CALL	_timer_init
  1098 00000D64 6A 46                           	PUSH	70
  1099 00000D66 FF 35 [00005FA8]                	PUSH	DWORD [_timer4]
  1100 00000D6C E8 [00000000]                   	CALL	_timer_settime
  1101 00000D71 56                              	PUSH	ESI
  1102 00000D72 E8 [00000000]                   	CALL	_RandFood
  1103 00000D77 FF 76 08                        	PUSH	DWORD [8+ESI]
  1104 00000D7A FF 76 04                        	PUSH	DWORD [4+ESI]
  1105 00000D7D 6A 00                           	PUSH	0
  1106 00000D7F 6A 00                           	PUSH	0
  1107 00000D81 56                              	PUSH	ESI
  1108 00000D82 E8 [00000000]                   	CALL	_sheet_refresh
  1109 00000D87 83 C4 30                        	ADD	ESP,48
  1110 00000D8A E9 FFFFFDE4                     	JMP	L68
  1111 00000D8F                                 L81:
  1112 00000D8F 8B 3D [00005FAC]                	MOV	EDI,DWORD [_mx]
  1113 00000D95 8B 1D [00005FB0]                	MOV	EBX,DWORD [_my]
  1114 00000D9B 2B 7E 0C                        	SUB	EDI,DWORD [12+ESI]
  1115 00000D9E 2B 5E 10                        	SUB	EBX,DWORD [16+ESI]
  1116 00000DA1 8D 47 9C                        	LEA	EAX,DWORD [-100+EDI]
  1117 00000DA4 83 F8 70                        	CMP	EAX,112
  1118 00000DA7 77 14                           	JA	L82
  1119 00000DA9 83 FB 63                        	CMP	EBX,99
  1120 00000DAC 7E 0F                           	JLE	L82
  1121 00000DAE 83 FB 78                        	CMP	EBX,120
  1122 00000DB1 7F 0A                           	JG	L82
  1123 00000DB3 80 7D C5 4C                     	CMP	BYTE [-59+EBP],76
  1124 00000DB7 0F 84 00000096                  	JE	L160
  1125 00000DBD                                 L82:
  1126 00000DBD 8B 56 04                        	MOV	EDX,DWORD [4+ESI]
  1127 00000DC0 8D 82 FFFFFF38                  	LEA	EAX,DWORD [-200+EDX]
  1128 00000DC6 39 F8                           	CMP	EAX,EDI
  1129 00000DC8 0F 8F FFFFFCE7                  	JG	L84
  1130 00000DCE 8D 42 90                        	LEA	EAX,DWORD [-112+EDX]
  1131 00000DD1 39 C7                           	CMP	EDI,EAX
  1132 00000DD3 0F 8F FFFFFCDC                  	JG	L84
  1133 00000DD9 8B 56 08                        	MOV	EDX,DWORD [8+ESI]
  1134 00000DDC 8D 42 9C                        	LEA	EAX,DWORD [-100+EDX]
  1135 00000DDF 39 D8                           	CMP	EAX,EBX
  1136 00000DE1 0F 8F FFFFFCCE                  	JG	L84
  1137 00000DE7 8D 42 B0                        	LEA	EAX,DWORD [-80+EDX]
  1138 00000DEA 39 C3                           	CMP	EBX,EAX
  1139 00000DEC 0F 8F FFFFFCC3                  	JG	L84
  1140 00000DF2 80 7D C5 4C                     	CMP	BYTE [-59+EBP],76
  1141 00000DF6 0F 85 FFFFFCB9                  	JNE	L84
  1142 00000DFC 56                              	PUSH	ESI
  1143 00000DFD C7 85 FFFFFC10 00000005         	MOV	DWORD [-1008+EBP],5
  1144 00000E07 C7 85 FFFFFBEC 00000003         	MOV	DWORD [-1044+EBP],3
  1145 00000E11 E8 [00000000]                   	CALL	_initgameface
  1146 00000E16 6A 19                           	PUSH	25
  1147 00000E18 68 [00005F90]                   	PUSH	_fifo
  1148 00000E1D FF 35 [00005FA8]                	PUSH	DWORD [_timer4]
  1149 00000E23 E8 [00000000]                   	CALL	_timer_init
  1150 00000E28 6A 46                           	PUSH	70
  1151 00000E2A FF 35 [00005FA8]                	PUSH	DWORD [_timer4]
  1152 00000E30 E8 [00000000]                   	CALL	_timer_settime
  1153 00000E35 56                              	PUSH	ESI
  1154 00000E36 E8 [00000000]                   	CALL	_RandFood
  1155 00000E3B FF 76 08                        	PUSH	DWORD [8+ESI]
  1156 00000E3E FF 76 04                        	PUSH	DWORD [4+ESI]
  1157 00000E41 6A 00                           	PUSH	0
  1158 00000E43 6A 00                           	PUSH	0
  1159 00000E45 56                              	PUSH	ESI
  1160 00000E46 E8 [00000000]                   	CALL	_sheet_refresh
  1161 00000E4B 83 C4 30                        	ADD	ESP,48
  1162 00000E4E E9 FFFFFC62                     	JMP	L84
  1163 00000E53                                 L160:
  1164 00000E53 68 [000000A8]                   	PUSH	LC2
  1165 00000E58 FF 76 08                        	PUSH	DWORD [8+ESI]
  1166 00000E5B FF 76 04                        	PUSH	DWORD [4+ESI]
  1167 00000E5E 56                              	PUSH	ESI
  1168 00000E5F C7 85 FFFFFC10 00000004         	MOV	DWORD [-1008+EBP],4
  1169 00000E69 E8 000004CF                     	CALL	_make_game8
  1170 00000E6E FF 76 08                        	PUSH	DWORD [8+ESI]
  1171 00000E71 FF 76 04                        	PUSH	DWORD [4+ESI]
  1172 00000E74 6A 00                           	PUSH	0
  1173 00000E76 6A 00                           	PUSH	0
  1174 00000E78 56                              	PUSH	ESI
  1175 00000E79 E8 [00000000]                   	CALL	_sheet_refresh
  1176 00000E7E 83 C4 24                        	ADD	ESP,36
  1177 00000E81 E9 FFFFFF37                     	JMP	L82
  1178 00000E86                                 L151:
  1179 00000E86 C7 05 [00005FB0] 00000000       	MOV	DWORD [_my],0
  1180 00000E90 E9 FFFFFBD9                     	JMP	L57
  1181 00000E95                                 L150:
  1182 00000E95 C7 05 [00005FAC] 00000000       	MOV	DWORD [_mx],0
  1183 00000E9F E9 FFFFFBC2                     	JMP	L56
  1184 00000EA4                                 L142:
  1185 00000EA4 8B 85 FFFFFC10                  	MOV	EAX,DWORD [-1008+EBP]
  1186 00000EAA 48                              	DEC	EAX
  1187 00000EAB 83 F8 06                        	CMP	EAX,6
  1188 00000EAE 0F 87 FFFFF7F7                  	JA	L50
  1189 00000EB4 FF 24 85 [000000E4]             	JMP	DWORD [L49+EAX*4]
  1190                                          [SECTION .data]
  1191 000000E4                                 	ALIGNB	4
  1192 000000E4                                 L49:
  1193 000000E4 [000006AB]                      	DD	L50
  1194 000000E8 [00000EBB]                      	DD	L10
  1195 000000EC [000006AB]                      	DD	L50
  1196 000000F0 [00001137]                      	DD	L24
  1197 000000F4 [0000119A]                      	DD	L26
  1198 000000F8 [000012C6]                      	DD	L44
  1199 000000FC [000012E3]                      	DD	L42
  1200                                          [SECTION .text]
  1201 00000EBB                                 L10:
  1202 00000EBB 81 FB 00000153                  	CMP	EBX,339
  1203 00000EC1 0F 8F 00000087                  	JG	L11
  1204 00000EC7 8A 83 [FFFFFF18]                	MOV	AL,BYTE [_keytable.0-256+EBX]
  1205 00000ECD 84 C0                           	TEST	AL,AL
  1206 00000ECF 74 7D                           	JE	L11
  1207 00000ED1 81 BD FFFFFBFC 000000CF         	CMP	DWORD [-1028+EBP],207
  1208 00000EDB 7F 71                           	JG	L11
  1209 00000EDD 6A 01                           	PUSH	1
  1210 00000EDF 88 45 C4                        	MOV	BYTE [-60+EBP],AL
  1211 00000EE2 8D 45 C4                        	LEA	EAX,DWORD [-60+EBP]
  1212 00000EE5 50                              	PUSH	EAX
  1213 00000EE6 8B 85 FFFFFBFC                  	MOV	EAX,DWORD [-1028+EBP]
  1214 00000EEC 6A 07                           	PUSH	7
  1215 00000EEE 83 C0 1E                        	ADD	EAX,30
  1216 00000EF1 6A 00                           	PUSH	0
  1217 00000EF3 68 00000136                     	PUSH	310
  1218 00000EF8 50                              	PUSH	EAX
  1219 00000EF9 FF B5 FFFFFBD8                  	PUSH	DWORD [-1064+EBP]
  1220 00000EFF C6 45 C5 00                     	MOV	BYTE [-59+EBP],0
  1221 00000F03 E8 [00000000]                   	CALL	_putfonts8_asc_sht
  1222 00000F08 83 C4 1C                        	ADD	ESP,28
  1223 00000F0B 8B 85 FFFFFBFC                  	MOV	EAX,DWORD [-1028+EBP]
  1224 00000F11 BA 00000008                     	MOV	EDX,8
  1225 00000F16 89 D7                           	MOV	EDI,EDX
  1226 00000F18 99                              	CDQ
  1227 00000F19 F7 FF                           	IDIV	EDI
  1228 00000F1B 8A 55 C4                        	MOV	DL,BYTE [-60+EBP]
  1229 00000F1E 88 94 05 FFFFFC13               	MOV	BYTE [-1005+EBP+EAX*1],DL
  1230 00000F25 83 BD FFFFFC0C 00               	CMP	DWORD [-1012+EBP],0
  1231 00000F2C 75 19                           	JNE	L13
  1232 00000F2E 6A 14                           	PUSH	20
  1233 00000F30 FF B5 FFFFFC00                  	PUSH	DWORD [-1024+EBP]
  1234 00000F36 E8 [00000000]                   	CALL	_timer_settime
  1235 00000F3B 5F                              	POP	EDI
  1236 00000F3C C7 85 FFFFFC0C 00000001         	MOV	DWORD [-1012+EBP],1
  1237 00000F46 58                              	POP	EAX
  1238 00000F47                                 L13:
  1239 00000F47 83 85 FFFFFBFC 08               	ADD	DWORD [-1028+EBP],8
  1240 00000F4E                                 L11:
  1241 00000F4E 81 FB 0000010E                  	CMP	EBX,270
  1242 00000F54 0F 84 00000184                  	JE	L161
  1243 00000F5A                                 L14:
  1244 00000F5A 81 FB 0000011C                  	CMP	EBX,284
  1245 00000F60 74 42                           	JE	L162
  1246 00000F62                                 L15:
  1247 00000F62 8B 85 FFFFFBFC                  	MOV	EAX,DWORD [-1028+EBP]
  1248 00000F68 68 0000014A                     	PUSH	330
  1249 00000F6D 83 C0 26                        	ADD	EAX,38
  1250 00000F70 50                              	PUSH	EAX
  1251 00000F71 8B 85 FFFFFBFC                  	MOV	EAX,DWORD [-1028+EBP]
  1252 00000F77 68 00000136                     	PUSH	310
  1253 00000F7C 83 C0 1E                        	ADD	EAX,30
  1254 00000F7F 50                              	PUSH	EAX
  1255 00000F80 FF B5 FFFFFBD8                  	PUSH	DWORD [-1064+EBP]
  1256 00000F86 E8 [00000000]                   	CALL	_sheet_refresh
  1257 00000F8B 68 00000190                     	PUSH	400
  1258 00000F90 68 00000190                     	PUSH	400
  1259 00000F95 6A 00                           	PUSH	0
  1260 00000F97 6A 00                           	PUSH	0
  1261 00000F99 FF B5 FFFFFBD8                  	PUSH	DWORD [-1064+EBP]
  1262 00000F9F E9 FFFFF8EA                     	JMP	L138
  1263 00000FA4                                 L162:
  1264 00000FA4 8D 85 FFFFFC34                  	LEA	EAX,DWORD [-972+EBP]
  1265 00000FAA 8D BD FFFFFC14                  	LEA	EDI,DWORD [-1004+EBP]
  1266 00000FB0 50                              	PUSH	EAX
  1267 00000FB1 57                              	PUSH	EDI
  1268 00000FB2 E8 [00000000]                   	CALL	_strcmp
  1269 00000FB7 59                              	POP	ECX
  1270 00000FB8 5B                              	POP	EBX
  1271 00000FB9 85 C0                           	TEST	EAX,EAX
  1272 00000FBB 0F 85 000000B9                  	JNE	L16
  1273 00000FC1 0F BF 05 00000FF6               	MOVSX	EAX,WORD [4086]
  1274 00000FC8 50                              	PUSH	EAX
  1275 00000FC9 0F BF 05 00000FF4               	MOVSX	EAX,WORD [4084]
  1276 00000FD0 50                              	PUSH	EAX
  1277 00000FD1 FF B5 FFFFFBCC                  	PUSH	DWORD [-1076+EBP]
  1278 00000FD7 C7 85 FFFFFC10 00000003         	MOV	DWORD [-1008+EBP],3
  1279 00000FE1 E8 [00000000]                   	CALL	_init_screen8
  1280 00000FE6 8B 85 FFFFFBE8                  	MOV	EAX,DWORD [-1048+EBP]
  1281 00000FEC 68 0000012C                     	PUSH	300
  1282 00000FF1 68 000001AE                     	PUSH	430
  1283 00000FF6 FF 70 04                        	PUSH	DWORD [4+EAX]
  1284 00000FF9 FF 30                           	PUSH	DWORD [EAX]
  1285 00000FFB E8 00000C25                     	CALL	_make_windows
  1286 00001000 6A 09                           	PUSH	9
  1287 00001002 68 [000000BE]                   	PUSH	LC4
  1288 00001007 6A 0E                           	PUSH	14
  1289 00001009 6A 03                           	PUSH	3
  1290 0000100B 68 0000015E                     	PUSH	350
  1291 00001010 68 000001B8                     	PUSH	440
  1292 00001015 FF B5 FFFFFBE8                  	PUSH	DWORD [-1048+EBP]
  1293 0000101B E8 [00000000]                   	CALL	_putfonts8_asc_sht
  1294 00001020 83 C4 38                        	ADD	ESP,56
  1295 00001023 6A 0A                           	PUSH	10
  1296 00001025 6A 0A                           	PUSH	10
  1297 00001027 FF B5 FFFFFBE8                  	PUSH	DWORD [-1048+EBP]
  1298 0000102D E8 00000D2C                     	CALL	_make_snake
  1299 00001032 6A FF                           	PUSH	-1
  1300 00001034 FF B5 FFFFFBD8                  	PUSH	DWORD [-1064+EBP]
  1301 0000103A E8 [00000000]                   	CALL	_sheet_updown
  1302 0000103F 6A 01                           	PUSH	1
  1303 00001041 FF B5 FFFFFBE8                  	PUSH	DWORD [-1048+EBP]
  1304 00001047 E8 [00000000]                   	CALL	_sheet_updown
  1305 0000104C 6A 02                           	PUSH	2
  1306 0000104E FF B5 FFFFFBE4                  	PUSH	DWORD [-1052+EBP]
  1307 00001054 E8 [00000000]                   	CALL	_sheet_updown
  1308 00001059 83 C4 24                        	ADD	ESP,36
  1309 0000105C 6A 64                           	PUSH	100
  1310 0000105E FF B5 FFFFFC04                  	PUSH	DWORD [-1020+EBP]
  1311 00001064 E8 [00000000]                   	CALL	_timer_settime
  1312 00001069 58                              	POP	EAX
  1313 0000106A 5A                              	POP	EDX
  1314 0000106B C7 85 FFFFFC0C 00000000         	MOV	DWORD [-1012+EBP],0
  1315 00001075 E9 FFFFFEE8                     	JMP	L15
  1316 0000107A                                 L16:
  1317 0000107A FF B5 FFFFFBD8                  	PUSH	DWORD [-1064+EBP]
  1318 00001080 E8 00000D8A                     	CALL	_ani_err
  1319 00001085 31 C0                           	XOR	EAX,EAX
  1320 00001087 FC                              	CLD
  1321 00001088 83 C9 FF                        	OR	ECX,-1
  1322 0000108B F2                              	REPNE
  1323 0000108C AE                              	SCASB
  1324 0000108D F7 D1                           	NOT	ECX
  1325 0000108F 31 C0                           	XOR	EAX,EAX
  1326 00001091 5F                              	POP	EDI
  1327 00001092 8D 51 FF                        	LEA	EDX,DWORD [-1+ECX]
  1328 00001095 39 D0                           	CMP	EAX,EDX
  1329 00001097 7D 0D                           	JGE	L129
  1330 00001099                                 L22:
  1331 00001099 C6 84 05 FFFFFC14 00            	MOV	BYTE [-1004+EBP+EAX*1],0
  1332 000010A1 40                              	INC	EAX
  1333 000010A2 39 D0                           	CMP	EAX,EDX
  1334 000010A4 7C F3                           	JL	L22
  1335 000010A6                                 L129:
  1336 000010A6 68 00000190                     	PUSH	400
  1337 000010AB 68 00000190                     	PUSH	400
  1338 000010B0 68 000000C8                     	PUSH	200
  1339 000010B5 6A 00                           	PUSH	0
  1340 000010B7 FF B5 FFFFFBD8                  	PUSH	DWORD [-1064+EBP]
  1341 000010BD C7 85 FFFFFBFC 00000008         	MOV	DWORD [-1028+EBP],8
  1342 000010C7 C7 85 FFFFFC0C 00000000         	MOV	DWORD [-1012+EBP],0
  1343 000010D1 E8 [00000000]                   	CALL	_sheet_refresh
  1344 000010D6 83 C4 14                        	ADD	ESP,20
  1345 000010D9 E9 FFFFFE84                     	JMP	L15
  1346 000010DE                                 L161:
  1347 000010DE 83 BD FFFFFBFC 08               	CMP	DWORD [-1028+EBP],8
  1348 000010E5 0F 8E FFFFFE6F                  	JLE	L14
  1349 000010EB 6A 01                           	PUSH	1
  1350 000010ED 8B 85 FFFFFBFC                  	MOV	EAX,DWORD [-1028+EBP]
  1351 000010F3 68 [000000C7]                   	PUSH	LC3
  1352 000010F8 83 C0 1E                        	ADD	EAX,30
  1353 000010FB 6A 07                           	PUSH	7
  1354 000010FD 6A 00                           	PUSH	0
  1355 000010FF 68 00000136                     	PUSH	310
  1356 00001104 50                              	PUSH	EAX
  1357 00001105 FF B5 FFFFFBD8                  	PUSH	DWORD [-1064+EBP]
  1358 0000110B E8 [00000000]                   	CALL	_putfonts8_asc_sht
  1359 00001110 83 C4 1C                        	ADD	ESP,28
  1360 00001113 8B 85 FFFFFBFC                  	MOV	EAX,DWORD [-1028+EBP]
  1361 00001119 BA 00000008                     	MOV	EDX,8
  1362 0000111E 89 D7                           	MOV	EDI,EDX
  1363 00001120 99                              	CDQ
  1364 00001121 F7 FF                           	IDIV	EDI
  1365 00001123 C6 84 05 FFFFFC12 00            	MOV	BYTE [-1006+EBP+EAX*1],0
  1366 0000112B 83 AD FFFFFBFC 08               	SUB	DWORD [-1028+EBP],8
  1367 00001132 E9 FFFFFE23                     	JMP	L14
  1368 00001137                                 L24:
  1369 00001137 81 FB 0000011C                  	CMP	EBX,284
  1370 0000113D 0F 85 FFFFF568                  	JNE	L50
  1371 00001143                                 L137:
  1372 00001143 56                              	PUSH	ESI
  1373 00001144 C7 85 FFFFFC10 00000005         	MOV	DWORD [-1008+EBP],5
  1374 0000114E C7 85 FFFFFBEC 00000003         	MOV	DWORD [-1044+EBP],3
  1375 00001158 E8 [00000000]                   	CALL	_initgameface
  1376 0000115D 6A 19                           	PUSH	25
  1377 0000115F 68 [00005F90]                   	PUSH	_fifo
  1378 00001164 FF 35 [00005FA8]                	PUSH	DWORD [_timer4]
  1379 0000116A E8 [00000000]                   	CALL	_timer_init
  1380 0000116F 6A 46                           	PUSH	70
  1381 00001171 FF 35 [00005FA8]                	PUSH	DWORD [_timer4]
  1382 00001177 E8 [00000000]                   	CALL	_timer_settime
  1383 0000117C 56                              	PUSH	ESI
  1384 0000117D E8 [00000000]                   	CALL	_RandFood
  1385 00001182 FF 76 08                        	PUSH	DWORD [8+ESI]
  1386 00001185 FF 76 04                        	PUSH	DWORD [4+ESI]
  1387 00001188 6A 00                           	PUSH	0
  1388 0000118A 6A 00                           	PUSH	0
  1389 0000118C 56                              	PUSH	ESI
  1390 0000118D E8 [00000000]                   	CALL	_sheet_refresh
  1391 00001192 83 C4 30                        	ADD	ESP,48
  1392 00001195 E9 FFFFF511                     	JMP	L50
  1393 0000119A                                 L26:
  1394 0000119A 8D 83 FFFFFF00                  	LEA	EAX,DWORD [-256+EBX]
  1395 000011A0 83 F8 48                        	CMP	EAX,72
  1396 000011A3 0F 84 000000FC                  	JE	L28
  1397 000011A9 83 F8 48                        	CMP	EAX,72
  1398 000011AC 7F 7C                           	JG	L40
  1399 000011AE 83 F8 01                        	CMP	EAX,1
  1400 000011B1 74 44                           	JE	L139
  1401 000011B3 83 F8 39                        	CMP	EAX,57
  1402 000011B6 0F 85 FFFFF4EF                  	JNE	L50
  1403 000011BC 6A 1B                           	PUSH	27
  1404 000011BE 68 [00005F90]                   	PUSH	_fifo
  1405 000011C3 FF 35 [00005FA8]                	PUSH	DWORD [_timer4]
  1406 000011C9 C7 85 FFFFFC10 00000007         	MOV	DWORD [-1008+EBP],7
  1407 000011D3 E8 [00000000]                   	CALL	_timer_init
  1408 000011D8 6A 03                           	PUSH	3
  1409 000011DA FF B5 FFFFFBD0                  	PUSH	DWORD [-1072+EBP]
  1410 000011E0 E8 [00000000]                   	CALL	_sheet_updown
  1411 000011E5 6A 04                           	PUSH	4
  1412 000011E7 FF B5 FFFFFBE4                  	PUSH	DWORD [-1052+EBP]
  1413 000011ED E8 [00000000]                   	CALL	_sheet_updown
  1414 000011F2 E9 FFFFF5DA                     	JMP	L136
  1415 000011F7                                 L139:
  1416 000011F7 68 [000000A8]                   	PUSH	LC2
  1417 000011FC FF 76 08                        	PUSH	DWORD [8+ESI]
  1418 000011FF FF 76 04                        	PUSH	DWORD [4+ESI]
  1419 00001202 56                              	PUSH	ESI
  1420 00001203 C7 85 FFFFFC10 00000004         	MOV	DWORD [-1008+EBP],4
  1421 0000120D E8 0000012B                     	CALL	_make_game8
  1422 00001212 FF 76 08                        	PUSH	DWORD [8+ESI]
  1423 00001215 FF 76 04                        	PUSH	DWORD [4+ESI]
  1424 00001218 6A 00                           	PUSH	0
  1425 0000121A 6A 00                           	PUSH	0
  1426 0000121C 56                              	PUSH	ESI
  1427 0000121D E8 [00000000]                   	CALL	_sheet_refresh
  1428 00001222                                 L135:
  1429 00001222 83 C4 24                        	ADD	ESP,36
  1430 00001225 E9 FFFFF481                     	JMP	L50
  1431 0000122A                                 L40:
  1432 0000122A 83 F8 4D                        	CMP	EAX,77
  1433 0000122D 74 57                           	JE	L32
  1434 0000122F 83 F8 4D                        	CMP	EAX,77
  1435 00001232 7F 28                           	JG	L41
  1436 00001234 83 F8 4B                        	CMP	EAX,75
  1437 00001237 0F 85 FFFFF46E                  	JNE	L50
  1438 0000123D 8B 85 FFFFFBEC                  	MOV	EAX,DWORD [-1044+EBP]
  1439 00001243 48                              	DEC	EAX
  1440 00001244 83 F8 01                        	CMP	EAX,1
  1441 00001247 0F 87 FFFFF45E                  	JA	L50
  1442 0000124D C7 85 FFFFFBEC 00000004         	MOV	DWORD [-1044+EBP],4
  1443 00001257 E9 FFFFF44F                     	JMP	L50
  1444 0000125C                                 L41:
  1445 0000125C 83 F8 50                        	CMP	EAX,80
  1446 0000125F 0F 85 FFFFF446                  	JNE	L50
  1447 00001265 8B 85 FFFFFBEC                  	MOV	EAX,DWORD [-1044+EBP]
  1448 0000126B 83 E8 03                        	SUB	EAX,3
  1449 0000126E 83 F8 01                        	CMP	EAX,1
  1450 00001271 0F 87 FFFFF434                  	JA	L50
  1451 00001277 C7 85 FFFFFBEC 00000002         	MOV	DWORD [-1044+EBP],2
  1452 00001281 E9 FFFFF425                     	JMP	L50
  1453 00001286                                 L32:
  1454 00001286 8B 85 FFFFFBEC                  	MOV	EAX,DWORD [-1044+EBP]
  1455 0000128C 48                              	DEC	EAX
  1456 0000128D 83 F8 01                        	CMP	EAX,1
  1457 00001290 0F 87 FFFFF415                  	JA	L50
  1458 00001296 C7 85 FFFFFBEC 00000003         	MOV	DWORD [-1044+EBP],3
  1459 000012A0 E9 FFFFF406                     	JMP	L50
  1460 000012A5                                 L28:
  1461 000012A5 8B 85 FFFFFBEC                  	MOV	EAX,DWORD [-1044+EBP]
  1462 000012AB 83 E8 03                        	SUB	EAX,3
  1463 000012AE 83 F8 01                        	CMP	EAX,1
  1464 000012B1 0F 87 FFFFF3F4                  	JA	L50
  1465 000012B7 C7 85 FFFFFBEC 00000001         	MOV	DWORD [-1044+EBP],1
  1466 000012C1 E9 FFFFF3E5                     	JMP	L50
  1467 000012C6                                 L44:
  1468 000012C6 81 FB 0000011C                  	CMP	EBX,284
  1469 000012CC 0F 84 FFFFFE71                  	JE	L137
  1470 000012D2 81 FB 00000101                  	CMP	EBX,257
  1471 000012D8 0F 85 FFFFF3CD                  	JNE	L50
  1472 000012DE E9 FFFFFF14                     	JMP	L139
  1473 000012E3                                 L42:
  1474 000012E3 81 FB 00000139                  	CMP	EBX,313
  1475 000012E9 75 DB                           	JNE	L44
  1476 000012EB 6A 19                           	PUSH	25
  1477 000012ED 68 [00005F90]                   	PUSH	_fifo
  1478 000012F2 FF 35 [00005FA8]                	PUSH	DWORD [_timer4]
  1479 000012F8 C7 85 FFFFFC10 00000005         	MOV	DWORD [-1008+EBP],5
  1480 00001302 E8 [00000000]                   	CALL	_timer_init
  1481 00001307 6A 14                           	PUSH	20
  1482 00001309 FF 35 [00005FA8]                	PUSH	DWORD [_timer4]
  1483 0000130F E8 [00000000]                   	CALL	_timer_settime
  1484 00001314 6A FF                           	PUSH	-1
  1485 00001316 FF B5 FFFFFBD0                  	PUSH	DWORD [-1072+EBP]
  1486 0000131C E8 [00000000]                   	CALL	_sheet_updown
  1487 00001321 6A 03                           	PUSH	3
  1488 00001323 FF B5 FFFFFBE4                  	PUSH	DWORD [-1052+EBP]
  1489 00001329 E8 [00000000]                   	CALL	_sheet_updown
  1490 0000132E E9 FFFFFEEF                     	JMP	L135
  1491 00001333                                 L141:
  1492 00001333 E8 [00000000]                   	CALL	_io_stihlt
  1493 00001338 E9 FFFFF285                     	JMP	L2
  1494                                          [SECTION .data]
  1495 00000100                                 _closebtn.1:
  1496 00000100 4F 4F 4F 4F 4F 4F 4F 4F 4F 4F   	DB	"OOOOOOOOOOOOOOO@"
       0000010A 4F 4F 4F 4F 4F 40 
  1497 00000110 4F 51 51 51 51 51 51 51 51 51   	DB	"OQQQQQQQQQQQQQ$@"
       0000011A 51 51 51 51 24 40 
  1498 00000120 4F 51 51 51 51 51 51 51 51 51   	DB	"OQQQQQQQQQQQQQ$@"
       0000012A 51 51 51 51 24 40 
  1499 00000130 4F 51 51 51 40 40 51 51 51 51   	DB	"OQQQ@@QQQQ@@QQ$@"
       0000013A 40 40 51 51 24 40 
  1500 00000140 4F 51 51 51 51 40 40 51 51 40   	DB	"OQQQQ@@QQ@@QQQ$@"
       0000014A 40 51 51 51 24 40 
  1501 00000150 4F 51 51 51 51 51 40 40 40 40   	DB	"OQQQQQ@@@@QQQQ$@"
       0000015A 51 51 51 51 24 40 
  1502 00000160 4F 51 51 51 51 51 51 40 40 51   	DB	"OQQQQQQ@@QQQQQ$@"
       0000016A 51 51 51 51 24 40 
  1503 00000170 4F 51 51 51 51 51 40 40 40 40   	DB	"OQQQQQ@@@@QQQQ$@"
       0000017A 51 51 51 51 24 40 
  1504 00000180 4F 51 51 51 51 40 40 51 51 40   	DB	"OQQQQ@@QQ@@QQQ$@"
       0000018A 40 51 51 51 24 40 
  1505 00000190 4F 51 51 51 40 40 51 51 51 51   	DB	"OQQQ@@QQQQ@@QQ$@"
       0000019A 40 40 51 51 24 40 
  1506 000001A0 4F 51 51 51 51 51 51 51 51 51   	DB	"OQQQQQQQQQQQQQ$@"
       000001AA 51 51 51 51 24 40 
  1507 000001B0 4F 51 51 51 51 51 51 51 51 51   	DB	"OQQQQQQQQQQQQQ$@"
       000001BA 51 51 51 51 24 40 
  1508 000001C0 4F 24 24 24 24 24 24 24 24 24   	DB	"O$$$$$$$$$$$$$$@"
       000001CA 24 24 24 24 24 40 
  1509 000001D0 40 40 40 40 40 40 40 40 40 40   	DB	"@@@@@@@@@@@@@@@@"
       000001DA 40 40 40 40 40 40 
  1510 000001E0                                 _hidebtn.2:
  1511 000001E0 4F 4F 4F 4F 4F 4F 4F 4F 4F 4F   	DB	"OOOOOOOOOOOOOOO@"
       000001EA 4F 4F 4F 4F 4F 40 
  1512 000001F0 4F 51 51 51 51 51 51 51 51 51   	DB	"OQQQQQQQQQQQQQ$@"
       000001FA 51 51 51 51 24 40 
  1513 00000200 4F 51 51 51 51 51 51 51 51 51   	DB	"OQQQQQQQQQQQQQ$@"
       0000020A 51 51 51 51 24 40 
  1514 00000210 4F 51 51 51 51 51 51 51 51 51   	DB	"OQQQQQQQQQQQQQ$@"
       0000021A 51 51 51 51 24 40 
  1515 00000220 4F 51 51 51 51 51 51 51 51 51   	DB	"OQQQQQQQQQQQQQ$@"
       0000022A 51 51 51 51 24 40 
  1516 00000230 4F 51 40 40 40 40 40 40 40 40   	DB	"OQ@@@@@@@@@@@Q$@"
       0000023A 40 40 40 51 24 40 
  1517 00000240 4F 51 40 40 40 40 40 40 40 40   	DB	"OQ@@@@@@@@@@@Q$@"
       0000024A 40 40 40 51 24 40 
  1518 00000250 4F 51 40 40 40 40 40 40 40 40   	DB	"OQ@@@@@@@@@@@Q$@"
       0000025A 40 40 40 51 24 40 
  1519 00000260 4F 51 51 51 51 51 51 51 51 51   	DB	"OQQQQQQQQQQQQQ$@"
       0000026A 51 51 51 51 24 40 
  1520 00000270 4F 51 51 51 51 51 51 51 51 51   	DB	"OQQQQQQQQQQQQQ$@"
       0000027A 51 51 51 51 24 40 
  1521 00000280 4F 51 51 51 51 51 51 51 51 51   	DB	"OQQQQQQQQQQQQQ$@"
       0000028A 51 51 51 51 24 40 
  1522 00000290 4F 51 51 51 51 51 51 51 51 51   	DB	"OQQQQQQQQQQQQQ$@"
       0000029A 51 51 51 51 24 40 
  1523 000002A0 4F 24 24 24 24 24 24 24 24 24   	DB	"O$$$$$$$$$$$$$$@"
       000002AA 24 24 24 24 24 40 
  1524 000002B0 40 40 40 40 40 40 40 40 40 40   	DB	"@@@@@@@@@@@@@@@@"
       000002BA 40 40 40 40 40 40 
  1525 000002C0                                 _expbtn.3:
  1526 000002C0 4F 4F 4F 4F 4F 4F 4F 4F 4F 4F   	DB	"OOOOOOOOOOOOOOO@"
       000002CA 4F 4F 4F 4F 4F 40 
  1527 000002D0 4F 51 51 51 51 51 51 51 51 51   	DB	"OQQQQQQQQQQQQQ$@"
       000002DA 51 51 51 51 24 40 
  1528 000002E0 4F 51 51 51 51 51 51 51 51 51   	DB	"OQQQQQQQQQQQQQ$@"
       000002EA 51 51 51 51 24 40 
  1529 000002F0 4F 51 51 51 40 40 40 40 40 40   	DB	"OQQQ@@@@@@@@QQ$@"
       000002FA 40 40 51 51 24 40 
  1530 00000300 4F 51 51 51 40 51 51 51 51 51   	DB	"OQQQ@QQQQQQ@QQ$@"
       0000030A 51 40 51 51 24 40 
  1531 00000310 4F 51 51 51 40 51 51 51 51 51   	DB	"OQQQ@QQQQQQ@QQ$@"
       0000031A 51 40 51 51 24 40 
  1532 00000320 4F 51 51 51 40 51 51 51 51 51   	DB	"OQQQ@QQQQQQ@QQ$@"
       0000032A 51 40 51 51 24 40 
  1533 00000330 4F 51 51 51 40 51 51 51 51 51   	DB	"OQQQ@QQQQQQ@QQ$@"
       0000033A 51 40 51 51 24 40 
  1534 00000340 4F 51 51 51 40 51 51 51 51 51   	DB	"OQQQ@QQQQQQ@QQ$@"
       0000034A 51 40 51 51 24 40 
  1535 00000350 4F 51 51 51 40 40 40 40 40 40   	DB	"OQQQ@@@@@@@@QQ$@"
       0000035A 40 40 51 51 24 40 
  1536 00000360 4F 51 51 51 51 51 51 51 51 51   	DB	"OQQQQQQQQQQQQQ$@"
       0000036A 51 51 51 51 24 40 
  1537 00000370 4F 51 51 51 51 51 51 51 51 51   	DB	"OQQQQQQQQQQQQQ$@"
       0000037A 51 51 51 51 24 40 
  1538 00000380 4F 24 24 24 24 24 24 24 24 24   	DB	"O$$$$$$$$$$$$$$@"
       0000038A 24 24 24 24 24 40 
  1539 00000390 40 40 40 40 40 40 40 40 40 40   	DB	"@@@@@@@@@@@@@@@@"
       0000039A 40 40 40 40 40 40 
  1540 000003A0                                 LC8:
  1541 000003A0 43 75 72 72 65 6E 74 20 44 69   	DB	"Current Difficulty:",0x00
       000003AA 66 66 69 63 75 6C 74 79 3A 00 
  1542 000003B4                                 LC12:
  1543 000003B4 3C 3C 44 6F 77 6E 00            	DB	"<<Down",0x00
  1544 000003BB                                 LC13:
  1545 000003BB 55 70 3E 3E 00                  	DB	"Up>>",0x00
  1546 000003C0                                 LC9:
  1547 000003C0 45 61 73 79 00                  	DB	"Easy",0x00
  1548 000003C5                                 LC11:
  1549 000003C5 48 61 72 64 00                  	DB	"Hard",0x00
  1550 000003CA                                 LC10:
  1551 000003CA 4D 69 64 00                     	DB	"Mid",0x00
  1552                                          [SECTION .text]
  1553 0000133D                                 	GLOBAL	_make_game8
  1554 0000133D                                 _make_game8:
  1555 0000133D 55                              	PUSH	EBP
  1556 0000133E 89 E5                           	MOV	EBP,ESP
  1557 00001340 57                              	PUSH	EDI
  1558 00001341 56                              	PUSH	ESI
  1559 00001342 53                              	PUSH	EBX
  1560 00001343 83 EC 48                        	SUB	ESP,72
  1561 00001346 8B 45 08                        	MOV	EAX,DWORD [8+EBP]
  1562 00001349 8B 5D 10                        	MOV	EBX,DWORD [16+EBP]
  1563 0000134C 8B 38                           	MOV	EDI,DWORD [EAX]
  1564 0000134E 8D 73 FE                        	LEA	ESI,DWORD [-2+EBX]
  1565 00001351 8B 45 0C                        	MOV	EAX,DWORD [12+EBP]
  1566 00001354 6A 00                           	PUSH	0
  1567 00001356 48                              	DEC	EAX
  1568 00001357 50                              	PUSH	EAX
  1569 00001358 89 45 BC                        	MOV	DWORD [-68+EBP],EAX
  1570 0000135B 6A 00                           	PUSH	0
  1571 0000135D 6A 00                           	PUSH	0
  1572 0000135F 6A 08                           	PUSH	8
  1573 00001361 FF 75 0C                        	PUSH	DWORD [12+EBP]
  1574 00001364 57                              	PUSH	EDI
  1575 00001365 E8 [00000000]                   	CALL	_boxfill8
  1576 0000136A 8B 45 0C                        	MOV	EAX,DWORD [12+EBP]
  1577 0000136D 6A 01                           	PUSH	1
  1578 0000136F 83 E8 02                        	SUB	EAX,2
  1579 00001372 50                              	PUSH	EAX
  1580 00001373 89 45 B8                        	MOV	DWORD [-72+EBP],EAX
  1581 00001376 6A 01                           	PUSH	1
  1582 00001378 6A 01                           	PUSH	1
  1583 0000137A 6A 07                           	PUSH	7
  1584 0000137C FF 75 0C                        	PUSH	DWORD [12+EBP]
  1585 0000137F 57                              	PUSH	EDI
  1586 00001380 E8 [00000000]                   	CALL	_boxfill8
  1587 00001385 8D 43 FF                        	LEA	EAX,DWORD [-1+EBX]
  1588 00001388 83 C4 38                        	ADD	ESP,56
  1589 0000138B 89 45 B4                        	MOV	DWORD [-76+EBP],EAX
  1590 0000138E 83 EB 03                        	SUB	EBX,3
  1591 00001391 50                              	PUSH	EAX
  1592 00001392 6A 00                           	PUSH	0
  1593 00001394 6A 00                           	PUSH	0
  1594 00001396 6A 00                           	PUSH	0
  1595 00001398 6A 08                           	PUSH	8
  1596 0000139A FF 75 0C                        	PUSH	DWORD [12+EBP]
  1597 0000139D 57                              	PUSH	EDI
  1598 0000139E E8 [00000000]                   	CALL	_boxfill8
  1599 000013A3 56                              	PUSH	ESI
  1600 000013A4 6A 01                           	PUSH	1
  1601 000013A6 6A 01                           	PUSH	1
  1602 000013A8 6A 01                           	PUSH	1
  1603 000013AA 6A 07                           	PUSH	7
  1604 000013AC FF 75 0C                        	PUSH	DWORD [12+EBP]
  1605 000013AF 57                              	PUSH	EDI
  1606 000013B0 E8 [00000000]                   	CALL	_boxfill8
  1607 000013B5 83 C4 38                        	ADD	ESP,56
  1608 000013B8 56                              	PUSH	ESI
  1609 000013B9 FF 75 B8                        	PUSH	DWORD [-72+EBP]
  1610 000013BC 6A 01                           	PUSH	1
  1611 000013BE FF 75 B8                        	PUSH	DWORD [-72+EBP]
  1612 000013C1 6A 0F                           	PUSH	15
  1613 000013C3 FF 75 0C                        	PUSH	DWORD [12+EBP]
  1614 000013C6 57                              	PUSH	EDI
  1615 000013C7 E8 [00000000]                   	CALL	_boxfill8
  1616 000013CC FF 75 B4                        	PUSH	DWORD [-76+EBP]
  1617 000013CF FF 75 BC                        	PUSH	DWORD [-68+EBP]
  1618 000013D2 6A 00                           	PUSH	0
  1619 000013D4 FF 75 BC                        	PUSH	DWORD [-68+EBP]
  1620 000013D7 6A 00                           	PUSH	0
  1621 000013D9 FF 75 0C                        	PUSH	DWORD [12+EBP]
  1622 000013DC 57                              	PUSH	EDI
  1623 000013DD E8 [00000000]                   	CALL	_boxfill8
  1624 000013E2 8B 45 0C                        	MOV	EAX,DWORD [12+EBP]
  1625 000013E5 83 C4 38                        	ADD	ESP,56
  1626 000013E8 83 E8 03                        	SUB	EAX,3
  1627 000013EB 53                              	PUSH	EBX
  1628 000013EC 50                              	PUSH	EAX
  1629 000013ED 6A 02                           	PUSH	2
  1630 000013EF 6A 02                           	PUSH	2
  1631 000013F1 6A 08                           	PUSH	8
  1632 000013F3 FF 75 0C                        	PUSH	DWORD [12+EBP]
  1633 000013F6 57                              	PUSH	EDI
  1634 000013F7 E8 [00000000]                   	CALL	_boxfill8
  1635 000013FC 8B 45 0C                        	MOV	EAX,DWORD [12+EBP]
  1636 000013FF 6A 14                           	PUSH	20
  1637 00001401 83 E8 04                        	SUB	EAX,4
  1638 00001404 50                              	PUSH	EAX
  1639 00001405 6A 03                           	PUSH	3
  1640 00001407 6A 03                           	PUSH	3
  1641 00001409 6A 0C                           	PUSH	12
  1642 0000140B FF 75 0C                        	PUSH	DWORD [12+EBP]
  1643 0000140E 57                              	PUSH	EDI
  1644 0000140F E8 [00000000]                   	CALL	_boxfill8
  1645 00001414 83 C4 38                        	ADD	ESP,56
  1646 00001417 56                              	PUSH	ESI
  1647 00001418 FF 75 B8                        	PUSH	DWORD [-72+EBP]
  1648 0000141B 56                              	PUSH	ESI
  1649 0000141C 6A 01                           	PUSH	1
  1650 0000141E 6A 0F                           	PUSH	15
  1651 00001420 FF 75 0C                        	PUSH	DWORD [12+EBP]
  1652 00001423 57                              	PUSH	EDI
  1653 00001424 E8 [00000000]                   	CALL	_boxfill8
  1654 00001429 FF 75 B4                        	PUSH	DWORD [-76+EBP]
  1655 0000142C FF 75 BC                        	PUSH	DWORD [-68+EBP]
  1656 0000142F FF 75 B4                        	PUSH	DWORD [-76+EBP]
  1657 00001432 6A 00                           	PUSH	0
  1658 00001434 6A 00                           	PUSH	0
  1659 00001436 FF 75 0C                        	PUSH	DWORD [12+EBP]
  1660 00001439 57                              	PUSH	EDI
  1661 0000143A E8 [00000000]                   	CALL	_boxfill8
  1662 0000143F 83 C4 38                        	ADD	ESP,56
  1663 00001442 6B 75 0C 05                     	IMUL	ESI,DWORD [12+EBP],5
  1664 00001446 C7 45 C0 00000000               	MOV	DWORD [-64+EBP],0
  1665 0000144D C7 45 AC 00000000               	MOV	DWORD [-84+EBP],0
  1666 00001454                                 L179:
  1667 00001454 8B 45 0C                        	MOV	EAX,DWORD [12+EBP]
  1668 00001457 31 DB                           	XOR	EBX,EBX
  1669 00001459 01 F0                           	ADD	EAX,ESI
  1670 0000145B 8D 4C 07 EB                     	LEA	ECX,DWORD [-21+EDI+EAX*1]
  1671 0000145F                                 L178:
  1672 0000145F 8B 45 AC                        	MOV	EAX,DWORD [-84+EBP]
  1673 00001462 8A 94 03 [00000100]             	MOV	DL,BYTE [_closebtn.1+EBX+EAX*1]
  1674 00001469 80 FA 40                        	CMP	DL,64
  1675 0000146C 0F 84 000001CF                  	JE	L212
  1676 00001472 80 FA 24                        	CMP	DL,36
  1677 00001475 0F 84 000001BF                  	JE	L213
  1678 0000147B 80 FA 51                        	CMP	DL,81
  1679 0000147E B2 08                           	MOV	DL,8
  1680 00001480 0F 95 C0                        	SETNE	AL
  1681 00001483 28 C2                           	SUB	DL,AL
  1682 00001485                                 L173:
  1683 00001485 43                              	INC	EBX
  1684 00001486 88 11                           	MOV	BYTE [ECX],DL
  1685 00001488 41                              	INC	ECX
  1686 00001489 83 FB 0F                        	CMP	EBX,15
  1687 0000148C 7E D1                           	JLE	L178
  1688 0000148E 03 75 0C                        	ADD	ESI,DWORD [12+EBP]
  1689 00001491 FF 45 C0                        	INC	DWORD [-64+EBP]
  1690 00001494 83 45 AC 10                     	ADD	DWORD [-84+EBP],16
  1691 00001498 83 7D C0 0D                     	CMP	DWORD [-64+EBP],13
  1692 0000149C 7E B6                           	JLE	L179
  1693 0000149E 6B 75 0C 05                     	IMUL	ESI,DWORD [12+EBP],5
  1694 000014A2 C7 45 C0 00000000               	MOV	DWORD [-64+EBP],0
  1695 000014A9 C7 45 B0 00000000               	MOV	DWORD [-80+EBP],0
  1696 000014B0                                 L195:
  1697 000014B0 8B 45 0C                        	MOV	EAX,DWORD [12+EBP]
  1698 000014B3 31 DB                           	XOR	EBX,EBX
  1699 000014B5 01 F0                           	ADD	EAX,ESI
  1700 000014B7 8D 4C 07 D6                     	LEA	ECX,DWORD [-42+EDI+EAX*1]
  1701 000014BB                                 L194:
  1702 000014BB 8B 45 B0                        	MOV	EAX,DWORD [-80+EBP]
  1703 000014BE 8A 94 03 [000001E0]             	MOV	DL,BYTE [_hidebtn.2+EBX+EAX*1]
  1704 000014C5 80 FA 40                        	CMP	DL,64
  1705 000014C8 0F 84 00000165                  	JE	L214
  1706 000014CE 80 FA 24                        	CMP	DL,36
  1707 000014D1 0F 84 00000155                  	JE	L215
  1708 000014D7 80 FA 51                        	CMP	DL,81
  1709 000014DA B2 08                           	MOV	DL,8
  1710 000014DC 0F 95 C0                        	SETNE	AL
  1711 000014DF 28 C2                           	SUB	DL,AL
  1712 000014E1                                 L189:
  1713 000014E1 43                              	INC	EBX
  1714 000014E2 88 11                           	MOV	BYTE [ECX],DL
  1715 000014E4 41                              	INC	ECX
  1716 000014E5 83 FB 0F                        	CMP	EBX,15
  1717 000014E8 7E D1                           	JLE	L194
  1718 000014EA 03 75 0C                        	ADD	ESI,DWORD [12+EBP]
  1719 000014ED FF 45 C0                        	INC	DWORD [-64+EBP]
  1720 000014F0 83 45 B0 10                     	ADD	DWORD [-80+EBP],16
  1721 000014F4 83 7D C0 0D                     	CMP	DWORD [-64+EBP],13
  1722 000014F8 7E B6                           	JLE	L195
  1723 000014FA 68 [000003A0]                   	PUSH	LC8
  1724 000014FF 8D 5D C4                        	LEA	EBX,DWORD [-60+EBP]
  1725 00001502 53                              	PUSH	EBX
  1726 00001503 E8 [00000000]                   	CALL	_sprintf
  1727 00001508 6A 0B                           	PUSH	11
  1728 0000150A 6A 07                           	PUSH	7
  1729 0000150C 53                              	PUSH	EBX
  1730 0000150D 68 000000C8                     	PUSH	200
  1731 00001512 6A 64                           	PUSH	100
  1732 00001514 FF 75 08                        	PUSH	DWORD [8+EBP]
  1733 00001517 E8 [00000000]                   	CALL	_draw_button
  1734 0000151C A1 [00000008]                   	MOV	EAX,DWORD [_difficulty]
  1735 00001521 83 C4 20                        	ADD	ESP,32
  1736 00001524 83 F8 02                        	CMP	EAX,2
  1737 00001527 0F 84 000000AF                  	JE	L198
  1738 0000152D 83 F8 02                        	CMP	EAX,2
  1739 00001530 0F 8F 0000008E                  	JG	L202
  1740 00001536 48                              	DEC	EAX
  1741 00001537 74 61                           	JE	L197
  1742 00001539                                 L196:
  1743 00001539 68 [000003B4]                   	PUSH	LC12
  1744 0000153E 8D 5D C4                        	LEA	EBX,DWORD [-60+EBP]
  1745 00001541 53                              	PUSH	EBX
  1746 00001542 E8 [00000000]                   	CALL	_sprintf
  1747 00001547 6A 04                           	PUSH	4
  1748 00001549 6A 07                           	PUSH	7
  1749 0000154B 53                              	PUSH	EBX
  1750 0000154C 68 000000F0                     	PUSH	240
  1751 00001551 68 00000104                     	PUSH	260
  1752 00001556 FF 75 08                        	PUSH	DWORD [8+EBP]
  1753 00001559 E8 [00000000]                   	CALL	_draw_button
  1754 0000155E 83 C4 20                        	ADD	ESP,32
  1755 00001561 68 [000003BB]                   	PUSH	LC13
  1756 00001566 53                              	PUSH	EBX
  1757 00001567 E8 [00000000]                   	CALL	_sprintf
  1758 0000156C 6A 01                           	PUSH	1
  1759 0000156E 6A 07                           	PUSH	7
  1760 00001570 53                              	PUSH	EBX
  1761 00001571 68 000000F0                     	PUSH	240
  1762 00001576 68 00000168                     	PUSH	360
  1763 0000157B FF 75 08                        	PUSH	DWORD [8+EBP]
  1764 0000157E E8 [00000000]                   	CALL	_draw_button
  1765 00001583 83 C4 20                        	ADD	ESP,32
  1766 00001586 6A 64                           	PUSH	100
  1767 00001588 6A 64                           	PUSH	100
  1768 0000158A FF 75 08                        	PUSH	DWORD [8+EBP]
  1769 0000158D E8 00000989                     	CALL	_draw_startbutton
  1770 00001592 8D 65 F4                        	LEA	ESP,DWORD [-12+EBP]
  1771 00001595 5B                              	POP	EBX
  1772 00001596 5E                              	POP	ESI
  1773 00001597 5F                              	POP	EDI
  1774 00001598 5D                              	POP	EBP
  1775 00001599 C3                              	RET
  1776 0000159A                                 L197:
  1777 0000159A 68 [000003C0]                   	PUSH	LC9
  1778 0000159F 53                              	PUSH	EBX
  1779 000015A0 E8 [00000000]                   	CALL	_sprintf
  1780 000015A5 6A 0A                           	PUSH	10
  1781 000015A7                                 L211:
  1782 000015A7 6A 07                           	PUSH	7
  1783 000015A9 53                              	PUSH	EBX
  1784 000015AA 68 000000C8                     	PUSH	200
  1785 000015AF 68 00000140                     	PUSH	320
  1786 000015B4 FF 75 08                        	PUSH	DWORD [8+EBP]
  1787 000015B7 E8 [00000000]                   	CALL	_draw_button
  1788 000015BC 83 C4 20                        	ADD	ESP,32
  1789 000015BF E9 FFFFFF75                     	JMP	L196
  1790 000015C4                                 L202:
  1791 000015C4 83 F8 03                        	CMP	EAX,3
  1792 000015C7 0F 85 FFFFFF6C                  	JNE	L196
  1793 000015CD 68 [000003C5]                   	PUSH	LC11
  1794 000015D2 53                              	PUSH	EBX
  1795 000015D3 E8 [00000000]                   	CALL	_sprintf
  1796 000015D8 6A 01                           	PUSH	1
  1797 000015DA EB CB                           	JMP	L211
  1798 000015DC                                 L198:
  1799 000015DC 68 000000F0                     	PUSH	240
  1800 000015E1 8B 45 08                        	MOV	EAX,DWORD [8+EBP]
  1801 000015E4 68 00000190                     	PUSH	400
  1802 000015E9 68 000000C8                     	PUSH	200
  1803 000015EE 68 00000140                     	PUSH	320
  1804 000015F3 6A 08                           	PUSH	8
  1805 000015F5 FF 70 04                        	PUSH	DWORD [4+EAX]
  1806 000015F8 FF 30                           	PUSH	DWORD [EAX]
  1807 000015FA E8 [00000000]                   	CALL	_boxfill8
  1808 000015FF 68 [000003CA]                   	PUSH	LC10
  1809 00001604 53                              	PUSH	EBX
  1810 00001605 E8 [00000000]                   	CALL	_sprintf
  1811 0000160A 83 C4 24                        	ADD	ESP,36
  1812 0000160D 6A 04                           	PUSH	4
  1813 0000160F 6A 07                           	PUSH	7
  1814 00001611 53                              	PUSH	EBX
  1815 00001612 68 000000C8                     	PUSH	200
  1816 00001617 68 00000140                     	PUSH	320
  1817 0000161C FF 75 08                        	PUSH	DWORD [8+EBP]
  1818 0000161F E8 [00000000]                   	CALL	_draw_button
  1819 00001624 83 C4 18                        	ADD	ESP,24
  1820 00001627 E9 FFFFFF0D                     	JMP	L196
  1821 0000162C                                 L215:
  1822 0000162C B2 0F                           	MOV	DL,15
  1823 0000162E E9 FFFFFEAE                     	JMP	L189
  1824 00001633                                 L214:
  1825 00001633 31 D2                           	XOR	EDX,EDX
  1826 00001635 E9 FFFFFEA7                     	JMP	L189
  1827 0000163A                                 L213:
  1828 0000163A B2 0F                           	MOV	DL,15
  1829 0000163C E9 FFFFFE44                     	JMP	L173
  1830 00001641                                 L212:
  1831 00001641 31 D2                           	XOR	EDX,EDX
  1832 00001643 E9 FFFFFE3D                     	JMP	L173
  1833 00001648                                 	GLOBAL	_refresh_button
  1834 00001648                                 _refresh_button:
  1835 00001648 55                              	PUSH	EBP
  1836 00001649 89 E5                           	MOV	EBP,ESP
  1837 0000164B 56                              	PUSH	ESI
  1838 0000164C 53                              	PUSH	EBX
  1839 0000164D 83 EC 30                        	SUB	ESP,48
  1840 00001650 A1 [00000008]                   	MOV	EAX,DWORD [_difficulty]
  1841 00001655 8B 75 08                        	MOV	ESI,DWORD [8+EBP]
  1842 00001658 83 F8 02                        	CMP	EAX,2
  1843 0000165B 0F 84 00000094                  	JE	L219
  1844 00001661 83 F8 02                        	CMP	EAX,2
  1845 00001664 7F 78                           	JG	L223
  1846 00001666 48                              	DEC	EAX
  1847 00001667 74 4D                           	JE	L218
  1848 00001669                                 L217:
  1849 00001669 68 [000003B4]                   	PUSH	LC12
  1850 0000166E 8D 5D C8                        	LEA	EBX,DWORD [-56+EBP]
  1851 00001671 53                              	PUSH	EBX
  1852 00001672 E8 [00000000]                   	CALL	_sprintf
  1853 00001677 6A 04                           	PUSH	4
  1854 00001679 6A 07                           	PUSH	7
  1855 0000167B 53                              	PUSH	EBX
  1856 0000167C 68 000000F0                     	PUSH	240
  1857 00001681 68 00000104                     	PUSH	260
  1858 00001686 56                              	PUSH	ESI
  1859 00001687 E8 [00000000]                   	CALL	_draw_button
  1860 0000168C 83 C4 20                        	ADD	ESP,32
  1861 0000168F 68 [000003BB]                   	PUSH	LC13
  1862 00001694 53                              	PUSH	EBX
  1863 00001695 E8 [00000000]                   	CALL	_sprintf
  1864 0000169A 6A 01                           	PUSH	1
  1865 0000169C 6A 07                           	PUSH	7
  1866 0000169E 53                              	PUSH	EBX
  1867 0000169F 68 000000F0                     	PUSH	240
  1868 000016A4 68 00000168                     	PUSH	360
  1869 000016A9 56                              	PUSH	ESI
  1870 000016AA E8 [00000000]                   	CALL	_draw_button
  1871 000016AF 8D 65 F8                        	LEA	ESP,DWORD [-8+EBP]
  1872 000016B2 5B                              	POP	EBX
  1873 000016B3 5E                              	POP	ESI
  1874 000016B4 5D                              	POP	EBP
  1875 000016B5 C3                              	RET
  1876 000016B6                                 L218:
  1877 000016B6 68 [000003C0]                   	PUSH	LC9
  1878 000016BB 8D 5D C8                        	LEA	EBX,DWORD [-56+EBP]
  1879 000016BE 53                              	PUSH	EBX
  1880 000016BF E8 [00000000]                   	CALL	_sprintf
  1881 000016C4 6A 0A                           	PUSH	10
  1882 000016C6                                 L224:
  1883 000016C6 6A 07                           	PUSH	7
  1884 000016C8 53                              	PUSH	EBX
  1885 000016C9 68 000000C8                     	PUSH	200
  1886 000016CE 68 00000140                     	PUSH	320
  1887 000016D3 56                              	PUSH	ESI
  1888 000016D4 E8 [00000000]                   	CALL	_draw_button
  1889 000016D9 83 C4 20                        	ADD	ESP,32
  1890 000016DC EB 8B                           	JMP	L217
  1891 000016DE                                 L223:
  1892 000016DE 83 F8 03                        	CMP	EAX,3
  1893 000016E1 75 86                           	JNE	L217
  1894 000016E3 68 [000003C5]                   	PUSH	LC11
  1895 000016E8 8D 5D C8                        	LEA	EBX,DWORD [-56+EBP]
  1896 000016EB 53                              	PUSH	EBX
  1897 000016EC E8 [00000000]                   	CALL	_sprintf
  1898 000016F1 6A 01                           	PUSH	1
  1899 000016F3 EB D1                           	JMP	L224
  1900 000016F5                                 L219:
  1901 000016F5 68 000000F0                     	PUSH	240
  1902 000016FA 8D 5D C8                        	LEA	EBX,DWORD [-56+EBP]
  1903 000016FD 68 00000190                     	PUSH	400
  1904 00001702 68 000000C8                     	PUSH	200
  1905 00001707 68 00000140                     	PUSH	320
  1906 0000170C 6A 08                           	PUSH	8
  1907 0000170E FF 76 04                        	PUSH	DWORD [4+ESI]
  1908 00001711 FF 36                           	PUSH	DWORD [ESI]
  1909 00001713 E8 [00000000]                   	CALL	_boxfill8
  1910 00001718 68 [000003CA]                   	PUSH	LC10
  1911 0000171D 53                              	PUSH	EBX
  1912 0000171E E8 [00000000]                   	CALL	_sprintf
  1913 00001723 83 C4 24                        	ADD	ESP,36
  1914 00001726 6A 04                           	PUSH	4
  1915 00001728 6A 07                           	PUSH	7
  1916 0000172A 53                              	PUSH	EBX
  1917 0000172B 68 000000C8                     	PUSH	200
  1918 00001730 68 00000140                     	PUSH	320
  1919 00001735 56                              	PUSH	ESI
  1920 00001736 E8 [00000000]                   	CALL	_draw_button
  1921 0000173B 83 C4 18                        	ADD	ESP,24
  1922 0000173E E9 FFFFFF26                     	JMP	L217
  1923 00001743                                 	GLOBAL	_make_textbox8
  1924 00001743                                 _make_textbox8:
  1925 00001743 55                              	PUSH	EBP
  1926 00001744 89 E5                           	MOV	EBP,ESP
  1927 00001746 57                              	PUSH	EDI
  1928 00001747 56                              	PUSH	ESI
  1929 00001748 53                              	PUSH	EBX
  1930 00001749 83 EC 14                        	SUB	ESP,20
  1931 0000174C 8B 45 0C                        	MOV	EAX,DWORD [12+EBP]
  1932 0000174F 8B 75 10                        	MOV	ESI,DWORD [16+EBP]
  1933 00001752 03 45 14                        	ADD	EAX,DWORD [20+EBP]
  1934 00001755 83 EE 03                        	SUB	ESI,3
  1935 00001758 56                              	PUSH	ESI
  1936 00001759 89 45 F0                        	MOV	DWORD [-16+EBP],EAX
  1937 0000175C 8B 45 10                        	MOV	EAX,DWORD [16+EBP]
  1938 0000175F 03 45 18                        	ADD	EAX,DWORD [24+EBP]
  1939 00001762 89 45 EC                        	MOV	DWORD [-20+EBP],EAX
  1940 00001765 8B 45 F0                        	MOV	EAX,DWORD [-16+EBP]
  1941 00001768 40                              	INC	EAX
  1942 00001769 50                              	PUSH	EAX
  1943 0000176A 89 45 E8                        	MOV	DWORD [-24+EBP],EAX
  1944 0000176D 8B 45 0C                        	MOV	EAX,DWORD [12+EBP]
  1945 00001770 56                              	PUSH	ESI
  1946 00001771 83 E8 02                        	SUB	EAX,2
  1947 00001774 50                              	PUSH	EAX
  1948 00001775 89 45 E4                        	MOV	DWORD [-28+EBP],EAX
  1949 00001778 8B 45 08                        	MOV	EAX,DWORD [8+EBP]
  1950 0000177B 6A 0F                           	PUSH	15
  1951 0000177D FF 70 04                        	PUSH	DWORD [4+EAX]
  1952 00001780 FF 30                           	PUSH	DWORD [EAX]
  1953 00001782 E8 [00000000]                   	CALL	_boxfill8
  1954 00001787 8B 7D 0C                        	MOV	EDI,DWORD [12+EBP]
  1955 0000178A 8B 45 EC                        	MOV	EAX,DWORD [-20+EBP]
  1956 0000178D 83 EF 03                        	SUB	EDI,3
  1957 00001790 40                              	INC	EAX
  1958 00001791 50                              	PUSH	EAX
  1959 00001792 89 45 E0                        	MOV	DWORD [-32+EBP],EAX
  1960 00001795 57                              	PUSH	EDI
  1961 00001796 8B 45 08                        	MOV	EAX,DWORD [8+EBP]
  1962 00001799 56                              	PUSH	ESI
  1963 0000179A 57                              	PUSH	EDI
  1964 0000179B 6A 0F                           	PUSH	15
  1965 0000179D FF 70 04                        	PUSH	DWORD [4+EAX]
  1966 000017A0 FF 30                           	PUSH	DWORD [EAX]
  1967 000017A2 E8 [00000000]                   	CALL	_boxfill8
  1968 000017A7 8B 45 08                        	MOV	EAX,DWORD [8+EBP]
  1969 000017AA 83 C4 38                        	ADD	ESP,56
  1970 000017AD 8B 5D EC                        	MOV	EBX,DWORD [-20+EBP]
  1971 000017B0 83 C3 02                        	ADD	EBX,2
  1972 000017B3 53                              	PUSH	EBX
  1973 000017B4 FF 75 E8                        	PUSH	DWORD [-24+EBP]
  1974 000017B7 53                              	PUSH	EBX
  1975 000017B8 57                              	PUSH	EDI
  1976 000017B9 6A 07                           	PUSH	7
  1977 000017BB FF 70 04                        	PUSH	DWORD [4+EAX]
  1978 000017BE FF 30                           	PUSH	DWORD [EAX]
  1979 000017C0 E8 [00000000]                   	CALL	_boxfill8
  1980 000017C5 8B 45 F0                        	MOV	EAX,DWORD [-16+EBP]
  1981 000017C8 53                              	PUSH	EBX
  1982 000017C9 83 C0 02                        	ADD	EAX,2
  1983 000017CC 50                              	PUSH	EAX
  1984 000017CD 56                              	PUSH	ESI
  1985 000017CE 50                              	PUSH	EAX
  1986 000017CF 8B 45 08                        	MOV	EAX,DWORD [8+EBP]
  1987 000017D2 6A 07                           	PUSH	7
  1988 000017D4 FF 70 04                        	PUSH	DWORD [4+EAX]
  1989 000017D7 FF 30                           	PUSH	DWORD [EAX]
  1990 000017D9 E8 [00000000]                   	CALL	_boxfill8
  1991 000017DE 8B 45 08                        	MOV	EAX,DWORD [8+EBP]
  1992 000017E1 83 C4 38                        	ADD	ESP,56
  1993 000017E4 8B 5D 10                        	MOV	EBX,DWORD [16+EBP]
  1994 000017E7 83 EB 02                        	SUB	EBX,2
  1995 000017EA 8B 7D 0C                        	MOV	EDI,DWORD [12+EBP]
  1996 000017ED 53                              	PUSH	EBX
  1997 000017EE 4F                              	DEC	EDI
  1998 000017EF FF 75 F0                        	PUSH	DWORD [-16+EBP]
  1999 000017F2 53                              	PUSH	EBX
  2000 000017F3 57                              	PUSH	EDI
  2001 000017F4 6A 00                           	PUSH	0
  2002 000017F6 FF 70 04                        	PUSH	DWORD [4+EAX]
  2003 000017F9 FF 30                           	PUSH	DWORD [EAX]
  2004 000017FB E8 [00000000]                   	CALL	_boxfill8
  2005 00001800 8B 45 08                        	MOV	EAX,DWORD [8+EBP]
  2006 00001803 FF 75 EC                        	PUSH	DWORD [-20+EBP]
  2007 00001806 FF 75 E4                        	PUSH	DWORD [-28+EBP]
  2008 00001809 53                              	PUSH	EBX
  2009 0000180A FF 75 E4                        	PUSH	DWORD [-28+EBP]
  2010 0000180D 6A 00                           	PUSH	0
  2011 0000180F FF 70 04                        	PUSH	DWORD [4+EAX]
  2012 00001812 FF 30                           	PUSH	DWORD [EAX]
  2013 00001814 E8 [00000000]                   	CALL	_boxfill8
  2014 00001819 8B 45 08                        	MOV	EAX,DWORD [8+EBP]
  2015 0000181C 83 C4 38                        	ADD	ESP,56
  2016 0000181F FF 75 E0                        	PUSH	DWORD [-32+EBP]
  2017 00001822 FF 75 F0                        	PUSH	DWORD [-16+EBP]
  2018 00001825 FF 75 E0                        	PUSH	DWORD [-32+EBP]
  2019 00001828 FF 75 E4                        	PUSH	DWORD [-28+EBP]
  2020 0000182B 6A 08                           	PUSH	8
  2021 0000182D FF 70 04                        	PUSH	DWORD [4+EAX]
  2022 00001830 FF 30                           	PUSH	DWORD [EAX]
  2023 00001832 E8 [00000000]                   	CALL	_boxfill8
  2024 00001837 8B 45 08                        	MOV	EAX,DWORD [8+EBP]
  2025 0000183A FF 75 E0                        	PUSH	DWORD [-32+EBP]
  2026 0000183D FF 75 E8                        	PUSH	DWORD [-24+EBP]
  2027 00001840 53                              	PUSH	EBX
  2028 00001841 FF 75 E8                        	PUSH	DWORD [-24+EBP]
  2029 00001844 6A 08                           	PUSH	8
  2030 00001846 FF 70 04                        	PUSH	DWORD [4+EAX]
  2031 00001849 FF 30                           	PUSH	DWORD [EAX]
  2032 0000184B E8 [00000000]                   	CALL	_boxfill8
  2033 00001850 8B 45 10                        	MOV	EAX,DWORD [16+EBP]
  2034 00001853 83 C4 38                        	ADD	ESP,56
  2035 00001856 48                              	DEC	EAX
  2036 00001857 FF 75 EC                        	PUSH	DWORD [-20+EBP]
  2037 0000185A FF 75 F0                        	PUSH	DWORD [-16+EBP]
  2038 0000185D 50                              	PUSH	EAX
  2039 0000185E 57                              	PUSH	EDI
  2040 0000185F 0F B6 45 1C                     	MOVZX	EAX,BYTE [28+EBP]
  2041 00001863 50                              	PUSH	EAX
  2042 00001864 8B 45 08                        	MOV	EAX,DWORD [8+EBP]
  2043 00001867 FF 70 04                        	PUSH	DWORD [4+EAX]
  2044 0000186A FF 30                           	PUSH	DWORD [EAX]
  2045 0000186C E8 [00000000]                   	CALL	_boxfill8
  2046 00001871 8D 65 F4                        	LEA	ESP,DWORD [-12+EBP]
  2047 00001874 5B                              	POP	EBX
  2048 00001875 5E                              	POP	ESI
  2049 00001876 5F                              	POP	EDI
  2050 00001877 5D                              	POP	EBP
  2051 00001878 C3                              	RET
  2052                                          [SECTION .data]
  2053 000003CE                                 LC14:
  2054 000003CE 53 74 61 72 74 69 6E 67 20 55   	DB	"Starting Up... ",0x00
       000003D8 70 2E 2E 2E 20 00 
  2055 000003DE 00 00 00 00 00 00 00 00 00 00   	RESB	24
       000003E8 00 00 00 00 00 00 00 00 00 00 
       000003F2 00 00 00 00 
  2056                                          [SECTION .text]
  2057 00001879                                 	GLOBAL	_make_kaiji
  2058 00001879                                 _make_kaiji:
  2059 00001879 55                              	PUSH	EBP
  2060 0000187A 89 E5                           	MOV	EBP,ESP
  2061 0000187C 57                              	PUSH	EDI
  2062 0000187D 56                              	PUSH	ESI
  2063 0000187E 53                              	PUSH	EBX
  2064 0000187F 83 EC 48                        	SUB	ESP,72
  2065 00001882 8B 45 08                        	MOV	EAX,DWORD [8+EBP]
  2066 00001885 8B 30                           	MOV	ESI,DWORD [EAX]
  2067 00001887 68 00000190                     	PUSH	400
  2068 0000188C 68 00000190                     	PUSH	400
  2069 00001891 6A 00                           	PUSH	0
  2070 00001893 6A 00                           	PUSH	0
  2071 00001895 6A 00                           	PUSH	0
  2072 00001897 FF 75 0C                        	PUSH	DWORD [12+EBP]
  2073 0000189A 56                              	PUSH	ESI
  2074 0000189B E8 [00000000]                   	CALL	_boxfill8
  2075 000018A0 8B 45 10                        	MOV	EAX,DWORD [16+EBP]
  2076 000018A3 8B 5D 14                        	MOV	EBX,DWORD [20+EBP]
  2077 000018A6 83 C0 6E                        	ADD	EAX,110
  2078 000018A9 83 C3 6E                        	ADD	EBX,110
  2079 000018AC 89 45 C0                        	MOV	DWORD [-64+EBP],EAX
  2080 000018AF 53                              	PUSH	EBX
  2081 000018B0 50                              	PUSH	EAX
  2082 000018B1 FF 75 14                        	PUSH	DWORD [20+EBP]
  2083 000018B4 FF 75 10                        	PUSH	DWORD [16+EBP]
  2084 000018B7 6A 01                           	PUSH	1
  2085 000018B9 FF 75 0C                        	PUSH	DWORD [12+EBP]
  2086 000018BC 56                              	PUSH	ESI
  2087 000018BD E8 [00000000]                   	CALL	_boxfill8
  2088 000018C2 8B 45 10                        	MOV	EAX,DWORD [16+EBP]
  2089 000018C5 83 C4 38                        	ADD	ESP,56
  2090 000018C8 05 000000EB                     	ADD	EAX,235
  2091 000018CD 89 45 BC                        	MOV	DWORD [-68+EBP],EAX
  2092 000018D0 53                              	PUSH	EBX
  2093 000018D1 50                              	PUSH	EAX
  2094 000018D2 8B 45 10                        	MOV	EAX,DWORD [16+EBP]
  2095 000018D5 FF 75 14                        	PUSH	DWORD [20+EBP]
  2096 000018D8 83 C0 7D                        	ADD	EAX,125
  2097 000018DB 50                              	PUSH	EAX
  2098 000018DC 89 45 B8                        	MOV	DWORD [-72+EBP],EAX
  2099 000018DF 6A 02                           	PUSH	2
  2100 000018E1 FF 75 0C                        	PUSH	DWORD [12+EBP]
  2101 000018E4 56                              	PUSH	ESI
  2102 000018E5 E8 [00000000]                   	CALL	_boxfill8
  2103 000018EA 8B 5D 14                        	MOV	EBX,DWORD [20+EBP]
  2104 000018ED 8B 7D 14                        	MOV	EDI,DWORD [20+EBP]
  2105 000018F0 83 C3 7D                        	ADD	EBX,125
  2106 000018F3 81 C7 000000EB                  	ADD	EDI,235
  2107 000018F9 57                              	PUSH	EDI
  2108 000018FA FF 75 C0                        	PUSH	DWORD [-64+EBP]
  2109 000018FD 53                              	PUSH	EBX
  2110 000018FE FF 75 10                        	PUSH	DWORD [16+EBP]
  2111 00001901 6A 04                           	PUSH	4
  2112 00001903 FF 75 0C                        	PUSH	DWORD [12+EBP]
  2113 00001906 56                              	PUSH	ESI
  2114 00001907 E8 [00000000]                   	CALL	_boxfill8
  2115 0000190C 83 C4 38                        	ADD	ESP,56
  2116 0000190F 57                              	PUSH	EDI
  2117 00001910 FF 75 BC                        	PUSH	DWORD [-68+EBP]
  2118 00001913 53                              	PUSH	EBX
  2119 00001914 BB 0000000A                     	MOV	EBX,10
  2120 00001919 FF 75 B8                        	PUSH	DWORD [-72+EBP]
  2121 0000191C 6A 03                           	PUSH	3
  2122 0000191E FF 75 0C                        	PUSH	DWORD [12+EBP]
  2123 00001921 56                              	PUSH	ESI
  2124 00001922 E8 [00000000]                   	CALL	_boxfill8
  2125 00001927 8B 45 14                        	MOV	EAX,DWORD [20+EBP]
  2126 0000192A 05 0000011D                     	ADD	EAX,285
  2127 0000192F 50                              	PUSH	EAX
  2128 00001930 8B 45 10                        	MOV	EAX,DWORD [16+EBP]
  2129 00001933 05 000000FF                     	ADD	EAX,255
  2130 00001938 50                              	PUSH	EAX
  2131 00001939 8B 45 14                        	MOV	EAX,DWORD [20+EBP]
  2132 0000193C 05 000000FF                     	ADD	EAX,255
  2133 00001941 50                              	PUSH	EAX
  2134 00001942 8B 45 10                        	MOV	EAX,DWORD [16+EBP]
  2135 00001945 83 E8 14                        	SUB	EAX,20
  2136 00001948 50                              	PUSH	EAX
  2137 00001949 6A 07                           	PUSH	7
  2138 0000194B FF 75 0C                        	PUSH	DWORD [12+EBP]
  2139 0000194E 56                              	PUSH	ESI
  2140 0000194F E8 [00000000]                   	CALL	_boxfill8
  2141 00001954 8B 45 14                        	MOV	EAX,DWORD [20+EBP]
  2142 00001957 83 C4 38                        	ADD	ESP,56
  2143 0000195A 05 0000011B                     	ADD	EAX,283
  2144 0000195F 50                              	PUSH	EAX
  2145 00001960 8B 45 10                        	MOV	EAX,DWORD [16+EBP]
  2146 00001963 05 000000FD                     	ADD	EAX,253
  2147 00001968 50                              	PUSH	EAX
  2148 00001969 8B 45 14                        	MOV	EAX,DWORD [20+EBP]
  2149 0000196C 05 00000101                     	ADD	EAX,257
  2150 00001971 50                              	PUSH	EAX
  2151 00001972 8B 45 10                        	MOV	EAX,DWORD [16+EBP]
  2152 00001975 83 E8 12                        	SUB	EAX,18
  2153 00001978 50                              	PUSH	EAX
  2154 00001979 6A 00                           	PUSH	0
  2155 0000197B FF 75 0C                        	PUSH	DWORD [12+EBP]
  2156 0000197E 56                              	PUSH	ESI
  2157 0000197F E8 [00000000]                   	CALL	_boxfill8
  2158 00001984 8B 7D 14                        	MOV	EDI,DWORD [20+EBP]
  2159 00001987 8B 45 18                        	MOV	EAX,DWORD [24+EBP]
  2160 0000198A 81 C7 00000104                  	ADD	EDI,260
  2161 00001990 99                              	CDQ
  2162 00001991 F7 FB                           	IDIV	EBX
  2163 00001993 6B D2 1B                        	IMUL	EDX,EDX,27
  2164 00001996 8B 45 14                        	MOV	EAX,DWORD [20+EBP]
  2165 00001999 05 00000118                     	ADD	EAX,280
  2166 0000199E 50                              	PUSH	EAX
  2167 0000199F 89 45 B4                        	MOV	DWORD [-76+EBP],EAX
  2168 000019A2 8D 42 16                        	LEA	EAX,DWORD [22+EDX]
  2169 000019A5 50                              	PUSH	EAX
  2170 000019A6 57                              	PUSH	EDI
  2171 000019A7 52                              	PUSH	EDX
  2172 000019A8 6A 06                           	PUSH	6
  2173 000019AA FF 75 0C                        	PUSH	DWORD [12+EBP]
  2174 000019AD 56                              	PUSH	ESI
  2175 000019AE E8 [00000000]                   	CALL	_boxfill8
  2176 000019B3 83 C4 38                        	ADD	ESP,56
  2177 000019B6 8B 45 18                        	MOV	EAX,DWORD [24+EBP]
  2178 000019B9 40                              	INC	EAX
  2179 000019BA 99                              	CDQ
  2180 000019BB F7 FB                           	IDIV	EBX
  2181 000019BD 6B D2 1B                        	IMUL	EDX,EDX,27
  2182 000019C0 FF 75 B4                        	PUSH	DWORD [-76+EBP]
  2183 000019C3 8D 42 16                        	LEA	EAX,DWORD [22+EDX]
  2184 000019C6 50                              	PUSH	EAX
  2185 000019C7 57                              	PUSH	EDI
  2186 000019C8 52                              	PUSH	EDX
  2187 000019C9 6A 06                           	PUSH	6
  2188 000019CB FF 75 0C                        	PUSH	DWORD [12+EBP]
  2189 000019CE 56                              	PUSH	ESI
  2190 000019CF E8 [00000000]                   	CALL	_boxfill8
  2191 000019D4 8B 45 18                        	MOV	EAX,DWORD [24+EBP]
  2192 000019D7 83 C0 02                        	ADD	EAX,2
  2193 000019DA 99                              	CDQ
  2194 000019DB F7 FB                           	IDIV	EBX
  2195 000019DD 6B D2 1B                        	IMUL	EDX,EDX,27
  2196 000019E0 FF 75 B4                        	PUSH	DWORD [-76+EBP]
  2197 000019E3 8D 42 16                        	LEA	EAX,DWORD [22+EDX]
  2198 000019E6 50                              	PUSH	EAX
  2199 000019E7 57                              	PUSH	EDI
  2200 000019E8 8D 7D D4                        	LEA	EDI,DWORD [-44+EBP]
  2201 000019EB 52                              	PUSH	EDX
  2202 000019EC 6A 06                           	PUSH	6
  2203 000019EE FF 75 0C                        	PUSH	DWORD [12+EBP]
  2204 000019F1 56                              	PUSH	ESI
  2205 000019F2 E8 [00000000]                   	CALL	_boxfill8
  2206 000019F7 8D 55 C4                        	LEA	EDX,DWORD [-60+EBP]
  2207 000019FA A1 [000003CE]                   	MOV	EAX,DWORD [LC14]
  2208 000019FF B9 00000006                     	MOV	ECX,6
  2209 00001A04 89 45 C4                        	MOV	DWORD [-60+EBP],EAX
  2210 00001A07 83 C4 38                        	ADD	ESP,56
  2211 00001A0A A1 [000003D2]                   	MOV	EAX,DWORD [LC14+4]
  2212 00001A0F 89 45 C8                        	MOV	DWORD [-56+EBP],EAX
  2213 00001A12 A1 [000003D6]                   	MOV	EAX,DWORD [LC14+8]
  2214 00001A17 89 45 CC                        	MOV	DWORD [-52+EBP],EAX
  2215 00001A1A A1 [000003DA]                   	MOV	EAX,DWORD [LC14+12]
  2216 00001A1F FC                              	CLD
  2217 00001A20 89 45 D0                        	MOV	DWORD [-48+EBP],EAX
  2218 00001A23 31 C0                           	XOR	EAX,EAX
  2219 00001A25 F3                              	REP
  2220 00001A26 AB                              	STOSD
  2221 00001A27 89 D7                           	MOV	EDI,EDX
  2222 00001A29 83 C9 FF                        	OR	ECX,-1
  2223 00001A2C F2                              	REPNE
  2224 00001A2D AE                              	SCASB
  2225 00001A2E F7 D1                           	NOT	ECX
  2226 00001A30 49                              	DEC	ECX
  2227 00001A31 8B 45 14                        	MOV	EAX,DWORD [20+EBP]
  2228 00001A34 51                              	PUSH	ECX
  2229 00001A35 05 0000013B                     	ADD	EAX,315
  2230 00001A3A 52                              	PUSH	EDX
  2231 00001A3B 6A 00                           	PUSH	0
  2232 00001A3D 6A 07                           	PUSH	7
  2233 00001A3F 50                              	PUSH	EAX
  2234 00001A40 FF 75 10                        	PUSH	DWORD [16+EBP]
  2235 00001A43 FF 75 08                        	PUSH	DWORD [8+EBP]
  2236 00001A46 E8 [00000000]                   	CALL	_putfonts8_asc_sht
  2237 00001A4B 8D 65 F4                        	LEA	ESP,DWORD [-12+EBP]
  2238 00001A4E 5B                              	POP	EBX
  2239 00001A4F 5E                              	POP	ESI
  2240 00001A50 5F                              	POP	EDI
  2241 00001A51 5D                              	POP	EBP
  2242 00001A52 C3                              	RET
  2243                                          [SECTION .data]
  2244 000003F6                                 LC15:
  2245 000003F6 20 4A 65 72 72 79 20 00         	DB	" Jerry ",0x00
  2246                                          [SECTION .text]
  2247 00001A53                                 	GLOBAL	_make_acount
  2248 00001A53                                 _make_acount:
  2249 00001A53 55                              	PUSH	EBP
  2250 00001A54 89 E5                           	MOV	EBP,ESP
  2251 00001A56 57                              	PUSH	EDI
  2252 00001A57 56                              	PUSH	ESI
  2253 00001A58 31 FF                           	XOR	EDI,EDI
  2254 00001A5A 53                              	PUSH	EBX
  2255 00001A5B 50                              	PUSH	EAX
  2256 00001A5C 8B 45 08                        	MOV	EAX,DWORD [8+EBP]
  2257 00001A5F 8B 58 08                        	MOV	EBX,DWORD [8+EAX]
  2258 00001A62 8B 70 04                        	MOV	ESI,DWORD [4+EAX]
  2259 00001A65 53                              	PUSH	EBX
  2260 00001A66 56                              	PUSH	ESI
  2261 00001A67 6A 00                           	PUSH	0
  2262 00001A69 6A 00                           	PUSH	0
  2263 00001A6B 6A 0E                           	PUSH	14
  2264 00001A6D 56                              	PUSH	ESI
  2265 00001A6E FF 30                           	PUSH	DWORD [EAX]
  2266 00001A70 E8 [00000000]                   	CALL	_boxfill8
  2267 00001A75 89 F0                           	MOV	EAX,ESI
  2268 00001A77 BA 00000002                     	MOV	EDX,2
  2269 00001A7C 6A 07                           	PUSH	7
  2270 00001A7E 89 D1                           	MOV	ECX,EDX
  2271 00001A80 6A 78                           	PUSH	120
  2272 00001A82 99                              	CDQ
  2273 00001A83 F7 F9                           	IDIV	ECX
  2274 00001A85 6A 7A                           	PUSH	122
  2275 00001A87 89 45 F0                        	MOV	DWORD [-16+EBP],EAX
  2276 00001A8A 50                              	PUSH	EAX
  2277 00001A8B 8B 45 08                        	MOV	EAX,DWORD [8+EBP]
  2278 00001A8E 53                              	PUSH	EBX
  2279 00001A8F 56                              	PUSH	ESI
  2280 00001A90 FF 30                           	PUSH	DWORD [EAX]
  2281 00001A92 E8 [00000000]                   	CALL	_draw_cycle
  2282 00001A97 8B 55 08                        	MOV	EDX,DWORD [8+EBP]
  2283 00001A9A 83 C4 38                        	ADD	ESP,56
  2284 00001A9D 6A 08                           	PUSH	8
  2285 00001A9F 6A 1E                           	PUSH	30
  2286 00001AA1 6A 5A                           	PUSH	90
  2287 00001AA3 FF 75 F0                        	PUSH	DWORD [-16+EBP]
  2288 00001AA6 53                              	PUSH	EBX
  2289 00001AA7 56                              	PUSH	ESI
  2290 00001AA8 FF 32                           	PUSH	DWORD [EDX]
  2291 00001AAA E8 [00000000]                   	CALL	_draw_cycle
  2292 00001AAF 8B 4D 08                        	MOV	ECX,DWORD [8+EBP]
  2293 00001AB2 6A 07                           	PUSH	7
  2294 00001AB4 6A 14                           	PUSH	20
  2295 00001AB6 6A 5A                           	PUSH	90
  2296 00001AB8 FF 75 F0                        	PUSH	DWORD [-16+EBP]
  2297 00001ABB 53                              	PUSH	EBX
  2298 00001ABC 56                              	PUSH	ESI
  2299 00001ABD FF 31                           	PUSH	DWORD [ECX]
  2300 00001ABF E8 [00000000]                   	CALL	_draw_cycle
  2301 00001AC4 83 C4 38                        	ADD	ESP,56
  2302 00001AC7 39 F7                           	CMP	EDI,ESI
  2303 00001AC9 0F 8D 000000A4                  	JGE	L257
  2304 00001ACF                                 L239:
  2305 00001ACF BB 00000078                     	MOV	EBX,120
  2306 00001AD4 81 FB 000000F0                  	CMP	EBX,240
  2307 00001ADA 7D 3D                           	JGE	L255
  2308 00001ADC 6B C6 78                        	IMUL	EAX,ESI,120
  2309 00001ADF 8D 0C 07                        	LEA	ECX,DWORD [EDI+EAX*1]
  2310 00001AE2                                 L238:
  2311 00001AE2 81 FB 000000B4                  	CMP	EBX,180
  2312 00001AE8 7F 24                           	JG	L234
  2313 00001AEA 89 FA                           	MOV	EDX,EDI
  2314 00001AEC 8D 83 FFFFFF4C                  	LEA	EAX,DWORD [-180+EBX]
  2315 00001AF2 2B 55 F0                        	SUB	EDX,DWORD [-16+EBP]
  2316 00001AF5 0F AF C0                        	IMUL	EAX,EAX
  2317 00001AF8 0F AF D2                        	IMUL	EDX,EDX
  2318 00001AFB 01 C2                           	ADD	EDX,EAX
  2319 00001AFD 81 FA 00000CB1                  	CMP	EDX,3249
  2320 00001B03 7F 09                           	JG	L234
  2321 00001B05 8B 55 08                        	MOV	EDX,DWORD [8+EBP]
  2322 00001B08 8B 02                           	MOV	EAX,DWORD [EDX]
  2323 00001B0A C6 04 01 08                     	MOV	BYTE [ECX+EAX*1],8
  2324 00001B0E                                 L234:
  2325 00001B0E 43                              	INC	EBX
  2326 00001B0F 01 F1                           	ADD	ECX,ESI
  2327 00001B11 81 FB 000000F0                  	CMP	EBX,240
  2328 00001B17 7C C9                           	JL	L238
  2329 00001B19                                 L255:
  2330 00001B19 47                              	INC	EDI
  2331 00001B1A 39 F7                           	CMP	EDI,ESI
  2332 00001B1C 7C B1                           	JL	L239
  2333 00001B1E 31 FF                           	XOR	EDI,EDI
  2334 00001B20 39 F7                           	CMP	EDI,ESI
  2335 00001B22 7D 4F                           	JGE	L257
  2336 00001B24                                 L251:
  2337 00001B24 BB 00000078                     	MOV	EBX,120
  2338 00001B29 81 FB 000000F0                  	CMP	EBX,240
  2339 00001B2F 7D 3D                           	JGE	L259
  2340 00001B31 6B C6 78                        	IMUL	EAX,ESI,120
  2341 00001B34 8D 0C 07                        	LEA	ECX,DWORD [EDI+EAX*1]
  2342 00001B37                                 L250:
  2343 00001B37 81 FB 000000B4                  	CMP	EBX,180
  2344 00001B3D 7F 24                           	JG	L246
  2345 00001B3F 89 FA                           	MOV	EDX,EDI
  2346 00001B41 8D 83 FFFFFF4C                  	LEA	EAX,DWORD [-180+EBX]
  2347 00001B47 2B 55 F0                        	SUB	EDX,DWORD [-16+EBP]
  2348 00001B4A 0F AF C0                        	IMUL	EAX,EAX
  2349 00001B4D 0F AF D2                        	IMUL	EDX,EDX
  2350 00001B50 01 C2                           	ADD	EDX,EAX
  2351 00001B52 81 FA 000008A1                  	CMP	EDX,2209
  2352 00001B58 7F 09                           	JG	L246
  2353 00001B5A 8B 55 08                        	MOV	EDX,DWORD [8+EBP]
  2354 00001B5D 8B 02                           	MOV	EAX,DWORD [EDX]
  2355 00001B5F C6 04 01 07                     	MOV	BYTE [ECX+EAX*1],7
  2356 00001B63                                 L246:
  2357 00001B63 43                              	INC	EBX
  2358 00001B64 01 F1                           	ADD	ECX,ESI
  2359 00001B66 81 FB 000000F0                  	CMP	EBX,240
  2360 00001B6C 7C C9                           	JL	L250
  2361 00001B6E                                 L259:
  2362 00001B6E 47                              	INC	EDI
  2363 00001B6F 39 F7                           	CMP	EDI,ESI
  2364 00001B71 7C B1                           	JL	L251
  2365 00001B73                                 L257:
  2366 00001B73 89 F0                           	MOV	EAX,ESI
  2367 00001B75 BA 00000002                     	MOV	EDX,2
  2368 00001B7A 89 D3                           	MOV	EBX,EDX
  2369 00001B7C 6A 07                           	PUSH	7
  2370 00001B7E 99                              	CDQ
  2371 00001B7F F7 FB                           	IDIV	EBX
  2372 00001B81 68 [000003F6]                   	PUSH	LC15
  2373 00001B86 6A 07                           	PUSH	7
  2374 00001B88 8D 40 E4                        	LEA	EAX,DWORD [-28+EAX]
  2375 00001B8B 6A 04                           	PUSH	4
  2376 00001B8D 68 00000104                     	PUSH	260
  2377 00001B92 50                              	PUSH	EAX
  2378 00001B93 FF 75 08                        	PUSH	DWORD [8+EBP]
  2379 00001B96 E8 [00000000]                   	CALL	_putfonts8_asc_sht
  2380 00001B9B 8D 46 C4                        	LEA	EAX,DWORD [-60+ESI]
  2381 00001B9E 6A 07                           	PUSH	7
  2382 00001BA0 6A 14                           	PUSH	20
  2383 00001BA2 50                              	PUSH	EAX
  2384 00001BA3 68 00000136                     	PUSH	310
  2385 00001BA8 6A 1E                           	PUSH	30
  2386 00001BAA FF 75 08                        	PUSH	DWORD [8+EBP]
  2387 00001BAD E8 FFFFFB91                     	CALL	_make_textbox8
  2388 00001BB2 8D 46 E0                        	LEA	EAX,DWORD [-32+ESI]
  2389 00001BB5 83 C4 34                        	ADD	ESP,52
  2390 00001BB8 6A 08                           	PUSH	8
  2391 00001BBA 6A 03                           	PUSH	3
  2392 00001BBC 68 00000148                     	PUSH	328
  2393 00001BC1 50                              	PUSH	EAX
  2394 00001BC2 8D 46 BA                        	LEA	EAX,DWORD [-70+ESI]
  2395 00001BC5 68 00000139                     	PUSH	313
  2396 00001BCA 50                              	PUSH	EAX
  2397 00001BCB FF 75 08                        	PUSH	DWORD [8+EBP]
  2398 00001BCE E8 [00000000]                   	CALL	_draw_arrow
  2399 00001BD3 8D 65 F4                        	LEA	ESP,DWORD [-12+EBP]
  2400 00001BD6 5B                              	POP	EBX
  2401 00001BD7 5E                              	POP	ESI
  2402 00001BD8 5F                              	POP	EDI
  2403 00001BD9 5D                              	POP	EBP
  2404 00001BDA C3                              	RET
  2405 00001BDB                                 	GLOBAL	_init_kaijitimer
  2406 00001BDB                                 _init_kaijitimer:
  2407 00001BDB 55                              	PUSH	EBP
  2408 00001BDC 89 E5                           	MOV	EBP,ESP
  2409 00001BDE 57                              	PUSH	EDI
  2410 00001BDF 56                              	PUSH	ESI
  2411 00001BE0 53                              	PUSH	EBX
  2412 00001BE1 8B 7D 0C                        	MOV	EDI,DWORD [12+EBP]
  2413 00001BE4 31 DB                           	XOR	EBX,EBX
  2414 00001BE6 39 FB                           	CMP	EBX,EDI
  2415 00001BE8 7D 33                           	JGE	L267
  2416 00001BEA 31 F6                           	XOR	ESI,ESI
  2417 00001BEC                                 L265:
  2418 00001BEC E8 [00000000]                   	CALL	_timer_alloc
  2419 00001BF1 8B 55 08                        	MOV	EDX,DWORD [8+EBP]
  2420 00001BF4 89 04 9A                        	MOV	DWORD [EDX+EBX*4],EAX
  2421 00001BF7 8D 53 32                        	LEA	EDX,DWORD [50+EBX]
  2422 00001BFA 52                              	PUSH	EDX
  2423 00001BFB 68 [00005F90]                   	PUSH	_fifo
  2424 00001C00 50                              	PUSH	EAX
  2425 00001C01 E8 [00000000]                   	CALL	_timer_init
  2426 00001C06 8B 45 08                        	MOV	EAX,DWORD [8+EBP]
  2427 00001C09 56                              	PUSH	ESI
  2428 00001C0A FF 34 98                        	PUSH	DWORD [EAX+EBX*4]
  2429 00001C0D 43                              	INC	EBX
  2430 00001C0E E8 [00000000]                   	CALL	_timer_settime
  2431 00001C13 83 C4 14                        	ADD	ESP,20
  2432 00001C16 03 75 10                        	ADD	ESI,DWORD [16+EBP]
  2433 00001C19 39 FB                           	CMP	EBX,EDI
  2434 00001C1B 7C CF                           	JL	L265
  2435 00001C1D                                 L267:
  2436 00001C1D 8D 65 F4                        	LEA	ESP,DWORD [-12+EBP]
  2437 00001C20 5B                              	POP	EBX
  2438 00001C21 5E                              	POP	ESI
  2439 00001C22 5F                              	POP	EDI
  2440 00001C23 5D                              	POP	EBP
  2441 00001C24 C3                              	RET
  2442                                          [SECTION .data]
  2443 000003FE                                 _table.4:
  2444 000003FE 2E 2E 2E 2E 2E 2E 2E 2E 2E 2E   	DB	"..............................***,*,]]]`******.........................................",0x00
       00000408 2E 2E 2E 2E 2E 2E 2E 2E 2E 2E 
       00000412 2E 2E 2E 2E 2E 2E 2E 2E 2E 2E 
       0000041C 2A 2A 2A 2C 2A 2C 5D 5D 5D 60 
       00000426 2A 2A 2A 2A 2A 2A 2E 2E 2E 2E 
       00000430 2E 2E 2E 2E 2E 2E 2E 2E 2E 2E 
       0000043A 2E 2E 2E 2E 2E 2E 2E 2E 2E 2E 
       00000444 2E 2E 2E 2E 2E 2E 2E 2E 2E 2E 
       0000044E 2E 2E 2E 2E 2E 2E 2E 00 
  2445 00000456 00 00                           	RESB	2
  2446 00000458 2E 2E 2E 2E 2E 2E 2E 2E 2E 2E   	DB	"........................**]]/@@@@@@@@@@@@@@@@..].`*....................................",0x00
       00000462 2E 2E 2E 2E 2E 2E 2E 2E 2E 2E 
       0000046C 2E 2E 2E 2E 2A 2A 5D 5D 2F 40 
       00000476 40 40 40 40 40 40 40 40 40 40 
       00000480 40 40 40 40 40 2E 2E 5D 2E 60 
       0000048A 2A 2E 2E 2E 2E 2E 2E 2E 2E 2E 
       00000494 2E 2E 2E 2E 2E 2E 2E 2E 2E 2E 
       0000049E 2E 2E 2E 2E 2E 2E 2E 2E 2E 2E 
       000004A8 2E 2E 2E 2E 2E 2E 2E 00 
  2447 000004B0 00 00                           	RESB	2
  2448 000004B2 2E 2E 2E 2E 2E 2E 2E 2E 2E 2E   	DB	"......................,,@@@@@OOOOOOO@@@@@@@@@@@@@@./*..................................",0x00
       000004BC 2E 2E 2E 2E 2E 2E 2E 2E 2E 2E 
       000004C6 2E 2E 2C 2C 40 40 40 40 40 4F 
       000004D0 4F 4F 4F 4F 4F 4F 40 40 40 40 
       000004DA 40 40 40 40 40 40 40 40 40 40 
       000004E4 2E 2F 2A 2E 2E 2E 2E 2E 2E 2E 
       000004EE 2E 2E 2E 2E 2E 2E 2E 2E 2E 2E 
       000004F8 2E 2E 2E 2E 2E 2E 2E 2E 2E 2E 
       00000502 2E 2E 2E 2E 2E 2E 2E 00 
  2449 0000050A 00 00                           	RESB	2
  2450 0000050C 2E 2E 2E 2E 2E 2E 2E 2E 2E 2E   	DB	"......................,@@OOOOOOOOOO@@@@@@@@@@@@@@@@@@/*................................",0x00
       00000516 2E 2E 2E 2E 2E 2E 2E 2E 2E 2E 
       00000520 2E 2E 2C 40 40 4F 4F 4F 4F 4F 
       0000052A 4F 4F 4F 4F 4F 40 40 40 40 40 
       00000534 40 40 40 40 40 40 40 40 40 40 
       0000053E 40 40 40 2F 2A 2E 2E 2E 2E 2E 
       00000548 2E 2E 2E 2E 2E 2E 2E 2E 2E 2E 
       00000552 2E 2E 2E 2E 2E 2E 2E 2E 2E 2E 
       0000055C 2E 2E 2E 2E 2E 2E 2E 00 
  2451 00000564 00 00                           	RESB	2
  2452 00000566 2E 2E 2E 2E 2E 2E 2E 2E 2E 2E   	DB	".....................*O@@OOOOOOOOOO@@@@@@@@@@@@@@@@@@oo./,*............................",0x00
       00000570 2E 2E 2E 2E 2E 2E 2E 2E 2E 2E 
       0000057A 2E 2A 4F 40 40 4F 4F 4F 4F 4F 
       00000584 4F 4F 4F 4F 4F 40 40 40 40 40 
       0000058E 40 40 40 40 40 40 40 40 40 40 
       00000598 40 40 40 6F 6F 2E 2F 2C 2A 2E 
       000005A2 2E 2E 2E 2E 2E 2E 2E 2E 2E 2E 
       000005AC 2E 2E 2E 2E 2E 2E 2E 2E 2E 2E 
       000005B6 2E 2E 2E 2E 2E 2E 2E 00 
  2453 000005BE 00 00                           	RESB	2
  2454 000005C0 2E 2E 2E 2E 2E 2E 2E 2E 2E 2E   	DB	"....................*=@@@OOOOOOOOO@@@@@@@@@@@@@@@@@@OOO@@@@]/.***...............**.o,@@",0x00
       000005CA 2E 2E 2E 2E 2E 2E 2E 2E 2E 2E 
       000005D4 2A 3D 40 40 40 4F 4F 4F 4F 4F 
       000005DE 4F 4F 4F 4F 40 40 40 40 40 40 
       000005E8 40 40 40 40 40 40 40 40 40 40 
       000005F2 40 40 4F 4F 4F 40 40 40 40 5D 
       000005FC 2F 2E 2A 2A 2A 2E 2E 2E 2E 2E 
       00000606 2E 2E 2E 2E 2E 2E 2E 2E 2E 2E 
       00000610 2A 2A 2E 6F 2C 40 40 00 
  2455 00000618 00 00                           	RESB	2
  2456 0000061A 2E 2E 2E 2E 2E 2E 2E 2E 2E 2E   	DB	"...................*=@@OOOOOOOOOOO@@@@@@@@@@@@@@@@@OOO@@@@@@@@@@Ooo*,]`*,]]]]]o]O@@@@@@",0x00
       00000624 2E 2E 2E 2E 2E 2E 2E 2E 2E 2A 
       0000062E 3D 40 40 4F 4F 4F 4F 4F 4F 4F 
       00000638 4F 4F 4F 4F 40 40 40 40 40 40 
       00000642 40 40 40 40 40 40 40 40 40 40 
       0000064C 40 4F 4F 4F 40 40 40 40 40 40 
       00000656 40 40 40 40 4F 6F 6F 2A 2C 5D 
       00000660 60 2A 2C 5D 5D 5D 5D 5D 6F 5D 
       0000066A 4F 40 40 40 40 40 40 00 
  2457 00000672 00 00                           	RESB	2
  2458 00000674 2E 2E 2E 2E 2E 2E 2E 2E 2E 2E   	DB	"...................*O@@OOOOOOOOOO@@@@@@@@@@@@@@@@@@OO@@@@@@@@@@@@@@@@@@@@@@@@@@@@@@@@@O",0x00
       0000067E 2E 2E 2E 2E 2E 2E 2E 2E 2E 2A 
       00000688 4F 40 40 4F 4F 4F 4F 4F 4F 4F 
       00000692 4F 4F 4F 40 40 40 40 40 40 40 
       0000069C 40 40 40 40 40 40 40 40 40 40 
       000006A6 40 4F 4F 40 40 40 40 40 40 40 
       000006B0 40 40 40 40 40 40 40 40 40 40 
       000006BA 40 40 40 40 40 40 40 40 40 40 
       000006C4 40 40 40 40 40 40 4F 00 
  2459 000006CC 00 00                           	RESB	2
  2460 000006CE 2E 2E 2E 2E 2E 2E 2E 2E 2E 2E   	DB	"..................*^@@OOOOOOOOOO@@@@@@@@@@@@@@@@@@OOO@@@@@@@@@@@@@@@@@@@@@@@@@@@@@@@@@O",0x00
       000006D8 2E 2E 2E 2E 2E 2E 2E 2E 2A 5E 
       000006E2 40 40 4F 4F 4F 4F 4F 4F 4F 4F 
       000006EC 4F 4F 40 40 40 40 40 40 40 40 
       000006F6 40 40 40 40 40 40 40 40 40 40 
       00000700 4F 4F 4F 40 40 40 40 40 40 40 
       0000070A 40 40 40 40 40 40 40 40 40 40 
       00000714 40 40 40 40 40 40 40 40 40 40 
       0000071E 40 40 40 40 40 40 4F 00 
  2461 00000726 00 00                           	RESB	2
  2462 00000728 2E 2E 2E 2E 2E 2E 2E 2E 2E 2E   	DB	".................*=.@OOOOOOOOOOO@@@@@@@@@@@@@@@@@OOO@@@@@@@@@@@@@@@@@@@@@@@@@@@@@@@@@Oo",0x00
       00000732 2E 2E 2E 2E 2E 2E 2E 2A 3D 2E 
       0000073C 40 4F 4F 4F 4F 4F 4F 4F 4F 4F 
       00000746 4F 4F 40 40 40 40 40 40 40 40 
       00000750 40 40 40 40 40 40 40 40 40 4F 
       0000075A 4F 4F 40 40 40 40 40 40 40 40 
       00000764 40 40 40 40 40 40 40 40 40 40 
       0000076E 40 40 40 40 40 40 40 40 40 40 
       00000778 40 40 40 40 40 4F 6F 00 
  2463 00000780 00 00                           	RESB	2
  2464 00000782 2E 2E 2E 2E 2E 2E 2E 2E 2E 2E   	DB	".................*O@@OOOOOOOOOO@@@@@@@@@@@@@@@@@@OOO@@@@@@@@@@@@@@@@@@@@@@@@@@@@@@@@@O/",0x00
       0000078C 2E 2E 2E 2E 2E 2E 2E 2A 4F 40 
       00000796 40 4F 4F 4F 4F 4F 4F 4F 4F 4F 
       000007A0 4F 40 40 40 40 40 40 40 40 40 
       000007AA 40 40 40 40 40 40 40 40 40 4F 
       000007B4 4F 4F 40 40 40 40 40 40 40 40 
       000007BE 40 40 40 40 40 40 40 40 40 40 
       000007C8 40 40 40 40 40 40 40 40 40 40 
       000007D2 40 40 40 40 40 4F 2F 00 
  2465 000007DA 00 00                           	RESB	2
  2466 000007DC 2E 2E 2E 2E 2E 2E 2E 2E 2E 2E   	DB	"...............**o@@OOOOOOOOOO@@@@@@@@@@@@@@@@@@OOO@@@@@@@@@@@@@@@@@@@@@@@@@@@@@@@@@Oo*",0x00
       000007E6 2E 2E 2E 2E 2E 2A 2A 6F 40 40 
       000007F0 4F 4F 4F 4F 4F 4F 4F 4F 4F 4F 
       000007FA 40 40 40 40 40 40 40 40 40 40 
       00000804 40 40 40 40 40 40 40 40 4F 4F 
       0000080E 4F 40 40 40 40 40 40 40 40 40 
       00000818 40 40 40 40 40 40 40 40 40 40 
       00000822 40 40 40 40 40 40 40 40 40 40 
       0000082C 40 40 40 40 4F 6F 2A 00 
  2467 00000834 00 00                           	RESB	2
  2468 00000836 2E 2E 2E 2E 2E 2E 2E 2E 2E 2E   	DB	"...............*.O@@@OOOOOOOO@@@@@@@@@@@@@@@@@@OOOO@@@@@@@@@@@@@@@@@@@@@@@@@@@@@@@@OO^*",0x00
       00000840 2E 2E 2E 2E 2E 2A 2E 4F 40 40 
       0000084A 40 4F 4F 4F 4F 4F 4F 4F 4F 40 
       00000854 40 40 40 40 40 40 40 40 40 40 
       0000085E 40 40 40 40 40 40 40 4F 4F 4F 
       00000868 4F 40 40 40 40 40 40 40 40 40 
       00000872 40 40 40 40 40 40 40 40 40 40 
       0000087C 40 40 40 40 40 40 40 40 40 40 
       00000886 40 40 40 4F 4F 5E 2A 00 
  2469 0000088E 00 00                           	RESB	2
  2470 00000890 2E 2E 2E 2E 2E 2E 2E 2E 2E 2E   	DB	"..............,=o@@OOOOOOOOOO@@@@@@@@@@@@@@@@@@OOO@@@@@@@@@@@@@@@@@@@@@@@@@@@@@@@@@Oo**",0x00
       0000089A 2E 2E 2E 2E 2C 3D 6F 40 40 4F 
       000008A4 4F 4F 4F 4F 4F 4F 4F 4F 4F 40 
       000008AE 40 40 40 40 40 40 40 40 40 40 
       000008B8 40 40 40 40 40 40 40 4F 4F 4F 
       000008C2 40 40 40 40 40 40 40 40 40 40 
       000008CC 40 40 40 40 40 40 40 40 40 40 
       000008D6 40 40 40 40 40 40 40 40 40 40 
       000008E0 40 40 40 4F 6F 2A 2A 00 
  2471 000008E8 00 00                           	RESB	2
  2472 000008EA 2E 2E 2E 2E 2E 2E 2E 2E 2E 2E   	DB	"..............*.@@@OO@@@@@@@@@@@@@@@@@@@@@@@@@OOOO@@@@@@@@@@@@@@@@@@@@@@@@@@@@@@@@OO^*.",0x00
       000008F4 2E 2E 2E 2E 2A 2E 40 40 40 4F 
       000008FE 4F 40 40 40 40 40 40 40 40 40 
       00000908 40 40 40 40 40 40 40 40 40 40 
       00000912 40 40 40 40 40 40 4F 4F 4F 4F 
       0000091C 40 40 40 40 40 40 40 40 40 40 
       00000926 40 40 40 40 40 40 40 40 40 40 
       00000930 40 40 40 40 40 40 40 40 40 40 
       0000093A 40 40 4F 4F 5E 2A 2E 00 
  2473 00000942 00 00                           	RESB	2
  2474 00000944 2E 2E 2E 2E 2E 2E 2E 2E 2E 2E   	DB	".............**.@@@@@@@OO@@OOOOOOOOOOOOO@@@@@OOOO@@@@@@@@@@@@@@@@@@@@@@@@@@@@@@@@@Oo**.",0x00
       0000094E 2E 2E 2E 2A 2A 2E 40 40 40 40 
       00000958 40 40 40 4F 4F 40 40 4F 4F 4F 
       00000962 4F 4F 4F 4F 4F 4F 4F 4F 4F 4F 
       0000096C 40 40 40 40 40 4F 4F 4F 4F 40 
       00000976 40 40 40 40 40 40 40 40 40 40 
       00000980 40 40 40 40 40 40 40 40 40 40 
       0000098A 40 40 40 40 40 40 40 40 40 40 
       00000994 40 40 4F 6F 2A 2A 2E 00 
  2475 0000099C 00 00                           	RESB	2
  2476 0000099E 2E 2E 2E 2E 2E 2E 2E 2E 2E 2E   	DB	".............*,.OOOO@@@@@@@@@@@@@@@@OOOOOOO@OoooO@@@@@@@@@@@@@@@@@@@@@@@@@@@@@@@@Oo^*..",0x00
       000009A8 2E 2E 2E 2A 2C 2E 4F 4F 4F 4F 
       000009B2 40 40 40 40 40 40 40 40 40 40 
       000009BC 40 40 40 40 40 40 4F 4F 4F 4F 
       000009C6 4F 4F 4F 40 4F 6F 6F 6F 4F 40 
       000009D0 40 40 40 40 40 40 40 40 40 40 
       000009DA 40 40 40 40 40 40 40 40 40 40 
       000009E4 40 40 40 40 40 40 40 40 40 40 
       000009EE 40 4F 6F 5E 2A 2E 2E 00 
  2477 000009F6 00 00                           	RESB	2
  2478 000009F8 2E 2E 2E 2E 2E 2E 2E 2E 2E 2E   	DB	"............**/O@@@@@@@@@@@@@@@@@@@@@@@@OOo..^/o@@@@@@@@@@@@@@@@@@@@@@@@@@@@@@@@OOo**..",0x00
       00000A02 2E 2E 2A 2A 2F 4F 40 40 40 40 
       00000A0C 40 40 40 40 40 40 40 40 40 40 
       00000A16 40 40 40 40 40 40 40 40 40 40 
       00000A20 4F 4F 6F 2E 2E 5E 2F 6F 40 40 
       00000A2A 40 40 40 40 40 40 40 40 40 40 
       00000A34 40 40 40 40 40 40 40 40 40 40 
       00000A3E 40 40 40 40 40 40 40 40 40 40 
       00000A48 4F 4F 6F 2A 2A 2E 2E 00 
  2479 00000A50 00 00                           	RESB	2
  2480 00000A52 2E 2E 2E 2E 2E 2E 2E 2E 2E 2E   	DB	"...........**.@@@@@@@@@@@@@@@@@@@@@@@@@@@@Oo,^/o@@@@@@@@@@@@@@@@@@@@@@@@@@@@@@@@O/***..",0x00
       00000A5C 2E 2A 2A 2E 40 40 40 40 40 40 
       00000A66 40 40 40 40 40 40 40 40 40 40 
       00000A70 40 40 40 40 40 40 40 40 40 40 
       00000A7A 40 40 4F 6F 2C 5E 2F 6F 40 40 
       00000A84 40 40 40 40 40 40 40 40 40 40 
       00000A8E 40 40 40 40 40 40 40 40 40 40 
       00000A98 40 40 40 40 40 40 40 40 40 40 
       00000AA2 4F 2F 2A 2A 2A 2E 2E 00 
  2481 00000AAA 00 00                           	RESB	2
  2482 00000AAC 2E 2E 2E 2E 2E 2E 2E 2E 2E 2E   	DB	"...........*o@@@@@@@@@@@@@@@@@@@@@@@@@@@@@@Oo/O@/OO@@@@@@@@@@@@@@@@@@@@@@@@@@@@Oo^**...",0x00
       00000AB6 2E 2A 6F 40 40 40 40 40 40 40 
       00000AC0 40 40 40 40 40 40 40 40 40 40 
       00000ACA 40 40 40 40 40 40 40 40 40 40 
       00000AD4 40 40 40 4F 6F 2F 4F 40 2F 4F 
       00000ADE 4F 40 40 40 40 40 40 40 40 40 
       00000AE8 40 40 40 40 40 40 40 40 40 40 
       00000AF2 40 40 40 40 40 40 40 40 40 4F 
       00000AFC 6F 5E 2A 2A 2E 2E 2E 00 
  2483 00000B04 00 00                           	RESB	2
  2484 00000B06 2E 2E 2E 2E 2E 2E 2E 2E 2E 2A   	DB	".........**=/@@@@@@@@@@@@@@@@@@@@@@@@@@@@@@OOO@@@@OOOOOO@@@@@@@@@@@@@@@@@@OOOOOo**.....",0x00
       00000B10 2A 3D 2F 40 40 40 40 40 40 40 
       00000B1A 40 40 40 40 40 40 40 40 40 40 
       00000B24 40 40 40 40 40 40 40 40 40 40 
       00000B2E 40 40 40 4F 4F 4F 40 40 40 40 
       00000B38 4F 4F 4F 4F 4F 4F 40 40 40 40 
       00000B42 40 40 40 40 40 40 40 40 40 40 
       00000B4C 40 40 40 40 4F 4F 4F 4F 4F 6F 
       00000B56 2A 2A 2E 2E 2E 2E 2E 00 
  2485 00000B5E 00 00                           	RESB	2
  2486 00000B60 2E 2E 2E 2E 2E 2E 2E 2E 2A 2A   	DB	"........**^o@@@@@@@@@@@@@@@@@@@@@@@@@@@@@@OOOO@@@@@@@OOOOOOOOOOOOOOOOOOOOOO@@@o^**.....",0x00
       00000B6A 5E 6F 40 40 40 40 40 40 40 40 
       00000B74 40 40 40 40 40 40 40 40 40 40 
       00000B7E 40 40 40 40 40 40 40 40 40 40 
       00000B88 40 40 4F 4F 4F 4F 40 40 40 40 
       00000B92 40 40 40 4F 4F 4F 4F 4F 4F 4F 
       00000B9C 4F 4F 4F 4F 4F 4F 4F 4F 4F 4F 
       00000BA6 4F 4F 4F 4F 4F 40 40 40 6F 5E 
       00000BB0 2A 2A 2E 2E 2E 2E 2E 00 
  2487 00000BB8 00 00                           	RESB	2
  2488 00000BBA 2E 2E 2E 2E 2E 2E 2E 2E 2A 2A   	DB	"........**/o@@@@@@@@@@@@@@@@@@@@@@@@@@@@@@OOO@@@@@OOO@@@@@@@@@@@@@@@@@@@@@@O@@o^***....",0x00
       00000BC4 2F 6F 40 40 40 40 40 40 40 40 
       00000BCE 40 40 40 40 40 40 40 40 40 40 
       00000BD8 40 40 40 40 40 40 40 40 40 40 
       00000BE2 40 40 4F 4F 4F 40 40 40 40 40 
       00000BEC 4F 4F 4F 40 40 40 40 40 40 40 
       00000BF6 40 40 40 40 40 40 40 40 40 40 
       00000C00 40 40 40 40 40 4F 40 40 6F 5E 
       00000C0A 2A 2A 2A 2E 2E 2E 2E 00 
  2489 00000C12 00 00                           	RESB	2
  2490 00000C14 2E 2E 2E 2E 2E 2E 2E 2E 2A 2A   	DB	"........**o@@@@@@@@@@@@@@@@@@@@@@@@@@@@@@OOO@@@@@@OOOOOOOOOooooooooooooOOOO@@Oo^***....",0x00
       00000C1E 6F 40 40 40 40 40 40 40 40 40 
       00000C28 40 40 40 40 40 40 40 40 40 40 
       00000C32 40 40 40 40 40 40 40 40 40 40 
       00000C3C 40 4F 4F 4F 40 40 40 40 40 40 
       00000C46 4F 4F 4F 4F 4F 4F 4F 4F 4F 6F 
       00000C50 6F 6F 6F 6F 6F 6F 6F 6F 6F 6F 
       00000C5A 6F 4F 4F 4F 4F 40 40 4F 6F 5E 
       00000C64 2A 2A 2A 2E 2E 2E 2E 00 
  2491 00000C6C 00 00                           	RESB	2
  2492 00000C6E 2E 2E 2E 2E 2E 2E 2E 2A 2A 6F   	DB	".......**oO@@@@@@@@@@@@@@@@@@@@@@@@@@@@@@OOO@@@@@@OOOOOOOOOOooooooooooOOOOO@@Oo^**.....",0x00
       00000C78 4F 40 40 40 40 40 40 40 40 40 
       00000C82 40 40 40 40 40 40 40 40 40 40 
       00000C8C 40 40 40 40 40 40 40 40 40 40 
       00000C96 40 4F 4F 4F 40 40 40 40 40 40 
       00000CA0 4F 4F 4F 4F 4F 4F 4F 4F 4F 4F 
       00000CAA 6F 6F 6F 6F 6F 6F 6F 6F 6F 6F 
       00000CB4 4F 4F 4F 4F 4F 40 40 4F 6F 5E 
       00000CBE 2A 2A 2E 2E 2E 2E 2E 00 
  2493 00000CC6 00 00                           	RESB	2
  2494 00000CC8 2E 2E 2E 2E 2E 2E 2A 2A 3D 6F   	DB	"......**=o@@@@@@@@@@@@@@@@@@@@@@@@@@@@@@OOO@@@@@@@OOOOOOOOOOooooooooooOOOO@@OOo***.....",0x00
       00000CD2 40 40 40 40 40 40 40 40 40 40 
       00000CDC 40 40 40 40 40 40 40 40 40 40 
       00000CE6 40 40 40 40 40 40 40 40 40 40 
       00000CF0 4F 4F 4F 40 40 40 40 40 40 40 
       00000CFA 4F 4F 4F 4F 4F 4F 4F 4F 4F 4F 
       00000D04 6F 6F 6F 6F 6F 6F 6F 6F 6F 6F 
       00000D0E 4F 4F 4F 4F 40 40 4F 4F 6F 2A 
       00000D18 2A 2A 2E 2E 2E 2E 2E 00 
  2495 00000D20 00 00                           	RESB	2
  2496 00000D22 2A 2A 2E 2E 2E 2A 2A 2A 6F 4F   	DB	"**...***oO@@@@@@@@@@@@@@@@@@@@@@@@@@@@@OOOO@@@@@@@OOOOOOOOOOooooooooooOOOO@OOo`**.*****",0x00
       00000D2C 40 40 40 40 40 40 40 40 40 40 
       00000D36 40 40 40 40 40 40 40 40 40 40 
       00000D40 40 40 40 40 40 40 40 40 40 4F 
       00000D4A 4F 4F 4F 40 40 40 40 40 40 40 
       00000D54 4F 4F 4F 4F 4F 4F 4F 4F 4F 4F 
       00000D5E 6F 6F 6F 6F 6F 6F 6F 6F 6F 6F 
       00000D68 4F 4F 4F 4F 40 4F 4F 6F 60 2A 
       00000D72 2A 2E 2A 2A 2A 2A 2A 00 
  2497 00000D7A 00 00                           	RESB	2
  2498 00000D7C 2A 2A 2A 2E 2A 2A 2A 6F 6F 40   	DB	"***.***oo@@@@@@@@@@@@@@@@@@@@@@@@@@@@@@OOO@@@@@@@@OOOOOOOOOOooooooooooOOO@@OOo*********",0x00
       00000D86 40 40 40 40 40 40 40 40 40 40 
       00000D90 40 40 40 40 40 40 40 40 40 40 
       00000D9A 40 40 40 40 40 40 40 40 40 4F 
       00000DA4 4F 4F 40 40 40 40 40 40 40 40 
       00000DAE 4F 4F 4F 4F 4F 4F 4F 4F 4F 4F 
       00000DB8 6F 6F 6F 6F 6F 6F 6F 6F 6F 6F 
       00000DC2 4F 4F 4F 40 40 4F 4F 6F 2A 2A 
       00000DCC 2A 2A 2A 2A 2A 2A 2A 00 
  2499 00000DD4 00 00                           	RESB	2
  2500 00000DD6 2A 2A 2E 2E 2A 2A 3D 2F 4F 40   	DB	"**..**=/O@@@@@@@@@@@@@@@@@@@@@@@@@@@@@OOOO@@@@@@@@OOOOOOOOOOoooooooooooO@@OOo`*********",0x00
       00000DE0 40 40 40 40 40 40 40 40 40 40 
       00000DEA 40 40 40 40 40 40 40 40 40 40 
       00000DF4 40 40 40 40 40 40 40 40 4F 4F 
       00000DFE 4F 4F 40 40 40 40 40 40 40 40 
       00000E08 4F 4F 4F 4F 4F 4F 4F 4F 4F 4F 
       00000E12 6F 6F 6F 6F 6F 6F 6F 6F 6F 6F 
       00000E1C 6F 4F 40 40 4F 4F 6F 60 2A 2A 
       00000E26 2A 2A 2A 2A 2A 2A 2A 00 
  2501 00000E2E 00 00                           	RESB	2
  2502 00000E30 2A 2A 2A 2A 2A 2A 5E 4F 40 40   	DB	"******^O@@@@@@@@@@@@@@@@@@@@@@@@@@@@@@OOO@@@@@@@@@OOOOOOOOOOoooooooooooO@@Ooo**********",0x00
       00000E3A 40 40 40 40 40 40 40 40 40 40 
       00000E44 40 40 40 40 40 40 40 40 40 40 
       00000E4E 40 40 40 40 40 40 40 40 4F 4F 
       00000E58 4F 40 40 40 40 40 40 40 40 40 
       00000E62 4F 4F 4F 4F 4F 4F 4F 4F 4F 4F 
       00000E6C 6F 6F 6F 6F 6F 6F 6F 6F 6F 6F 
       00000E76 6F 4F 40 40 4F 6F 6F 2A 2A 2A 
       00000E80 2A 2A 2A 2A 2A 2A 2A 00 
  2503 00000E88 00 00                           	RESB	2
  2504 00000E8A 2A 2A 2A 2A 2A 2A 2E 2E 40 40   	DB	"******..@@@@@@@OOOOOOOOOOOOOOO@@@@@@@OOOO@@@@@@@@@OOOOOOOOOOooooooooooO@@OOo`**********",0x00
       00000E94 40 40 40 40 40 4F 4F 4F 4F 4F 
       00000E9E 4F 4F 4F 4F 4F 4F 4F 4F 4F 4F 
       00000EA8 40 40 40 40 40 40 40 4F 4F 4F 
       00000EB2 4F 40 40 40 40 40 40 40 40 40 
       00000EBC 4F 4F 4F 4F 4F 4F 4F 4F 4F 4F 
       00000EC6 6F 6F 6F 6F 6F 6F 6F 6F 6F 6F 
       00000ED0 4F 40 40 4F 4F 6F 60 2A 2A 2A 
       00000EDA 2A 2A 2A 2A 2A 2A 2A 00 
  2505 00000EE2 00 00                           	RESB	2
  2506 00000EE4 2A 2A 2A 2A 2A 2A 2C 40 40 4F   	DB	"******,@@OOOOooooo*********oooOoOOO@OOOO@@@@@@@@@@OOOOOOOOOOooooooooooO@@Oo^***********",0x00
       00000EEE 4F 4F 4F 6F 6F 6F 6F 6F 2A 2A 
       00000EF8 2A 2A 2A 2A 2A 2A 2A 6F 6F 6F 
       00000F02 4F 6F 4F 4F 4F 40 4F 4F 4F 4F 
       00000F0C 40 40 40 40 40 40 40 40 40 40 
       00000F16 4F 4F 4F 4F 4F 4F 4F 4F 4F 4F 
       00000F20 6F 6F 6F 6F 6F 6F 6F 6F 6F 6F 
       00000F2A 4F 40 40 4F 6F 5E 2A 2A 2A 2A 
       00000F34 2A 2A 2A 2A 2A 2A 2A 00 
  2507 00000F3C 00 00                           	RESB	2
  2508 00000F3E 2A 2A 2A 2A 2A 2A 2A 2A 2A 2A   	DB	"*********************************oooooOO@@@@@@@@@@OOOOOOOOOOooooooooOO@@OOo************",0x00
       00000F48 2A 2A 2A 2A 2A 2A 2A 2A 2A 2A 
       00000F52 2A 2A 2A 2A 2A 2A 2A 2A 2A 2A 
       00000F5C 2A 2A 2A 6F 6F 6F 6F 6F 4F 4F 
       00000F66 40 40 40 40 40 40 40 40 40 40 
       00000F70 4F 4F 4F 4F 4F 4F 4F 4F 4F 4F 
       00000F7A 6F 6F 6F 6F 6F 6F 6F 6F 4F 4F 
       00000F84 40 40 4F 4F 6F 2A 2A 2A 2A 2A 
       00000F8E 2A 2A 2A 2A 2A 2A 2A 00 
  2509 00000F96 00 00                           	RESB	2
  2510 00000F98 2A 2A 2A 2A 2A 2A 2A 2A 2A 2A   	DB	"**************************************.O@@@@@@@@@@OOOOOOOOOOoooooooo/O@OOoo************",0x00
       00000FA2 2A 2A 2A 2A 2A 2A 2A 2A 2A 2A 
       00000FAC 2A 2A 2A 2A 2A 2A 2A 2A 2A 2A 
       00000FB6 2A 2A 2A 2A 2A 2A 2A 2A 2E 4F 
       00000FC0 40 40 40 40 40 40 40 40 40 40 
       00000FCA 4F 4F 4F 4F 4F 4F 4F 4F 4F 4F 
       00000FD4 6F 6F 6F 6F 6F 6F 6F 6F 2F 4F 
       00000FDE 40 4F 4F 6F 6F 2A 2A 2A 2A 2A 
       00000FE8 2A 2A 2A 2A 2A 2A 2A 00 
  2511 00000FF0 00 00                           	RESB	2
  2512 00000FF2 2A 2A 2A 2A 2A 2A 2A 2A 2A 2A   	DB	"**************************************,oOO@@@@@@@@OOOOOOOOOOoo[[oO@@@@@Oo.*************",0x00
       00000FFC 2A 2A 2A 2A 2A 2A 2A 2A 2A 2A 
       00001006 2A 2A 2A 2A 2A 2A 2A 2A 2A 2A 
       00001010 2A 2A 2A 2A 2A 2A 2A 2A 2C 6F 
       0000101A 4F 4F 40 40 40 40 40 40 40 40 
       00001024 4F 4F 4F 4F 4F 4F 4F 4F 4F 4F 
       0000102E 6F 6F 5B 5B 6F 4F 40 40 40 40 
       00001038 40 4F 6F 2E 2A 2A 2A 2A 2A 2A 
       00001042 2A 2A 2A 2A 2A 2A 2A 00 
  2513 0000104A 00 00                           	RESB	2
  2514 0000104C 2A 2A 2A 2A 2A 2A 2A 2A 2A 2A   	DB	"***************************************,oo.OOO@@@@@@@@@@@@@@@@@@@OOOOOoo`**************",0x00
       00001056 2A 2A 2A 2A 2A 2A 2A 2A 2A 2A 
       00001060 2A 2A 2A 2A 2A 2A 2A 2A 2A 2A 
       0000106A 2A 2A 2A 2A 2A 2A 2A 2A 2A 2C 
       00001074 6F 6F 2E 4F 4F 4F 40 40 40 40 
       0000107E 40 40 40 40 40 40 40 40 40 40 
       00001088 40 40 40 40 40 4F 4F 4F 4F 4F 
       00001092 6F 6F 60 2A 2A 2A 2A 2A 2A 2A 
       0000109C 2A 2A 2A 2A 2A 2A 2A 00 
  2515 000010A4 00 00                           	RESB	2
  2516 000010A6 2E 2A 2A 2A 2A 2A 2A 2A 2A 2A   	DB	".*****************************************.oooOOOOOOOOOOOOOOOOOOOOoooo^****************",0x00
       000010B0 2A 2A 2A 2A 2A 2A 2A 2A 2A 2A 
       000010BA 2A 2A 2A 2A 2A 2A 2A 2A 2A 2A 
       000010C4 2A 2A 2A 2A 2A 2A 2A 2A 2A 2A 
       000010CE 2A 2A 2E 6F 6F 6F 4F 4F 4F 4F 
       000010D8 4F 4F 4F 4F 4F 4F 4F 4F 4F 4F 
       000010E2 4F 4F 4F 4F 4F 4F 6F 6F 6F 6F 
       000010EC 5E 2A 2A 2A 2A 2A 2A 2A 2A 2A 
       000010F6 2A 2A 2A 2A 2A 2A 2A 00 
  2517 000010FE 00 00                           	RESB	2
  2518 00001100 2E 2E 2A 2A 2A 2A 2A 2A 2A 2A   	DB	"..********************************************[.oooooooooooooo/[***********************",0x00
       0000110A 2A 2A 2A 2A 2A 2A 2A 2A 2A 2A 
       00001114 2A 2A 2A 2A 2A 2A 2A 2A 2A 2A 
       0000111E 2A 2A 2A 2A 2A 2A 2A 2A 2A 2A 
       00001128 2A 2A 2A 2A 2A 2A 5B 2E 6F 6F 
       00001132 6F 6F 6F 6F 6F 6F 6F 6F 6F 6F 
       0000113C 6F 6F 2F 5B 2A 2A 2A 2A 2A 2A 
       00001146 2A 2A 2A 2A 2A 2A 2A 2A 2A 2A 
       00001150 2A 2A 2A 2A 2A 2A 2A 00 
  2519 00001158 00 00                           	RESB	2
  2520 0000115A 00 00 00 00 00 00 00 00 00 00   	RESB	180
       00001164 00 00 00 00 00 00 00 00 00 00 
       0000116E 00 00 00 00 00 00 00 00 00 00 
       00001178 00 00 00 00 00 00 00 00 00 00 
       00001182 00 00 00 00 00 00 00 00 00 00 
       0000118C 00 00 00 00 00 00 00 00 00 00 
       00001196 00 00 00 00 00 00 00 00 00 00 
       000011A0 00 00 00 00 00 00 00 00 00 00 
       000011AA 00 00 00 00 00 00 00 00 00 00 
       000011B4 00 00 00 00 00 00 00 00 00 00 
       000011BE 00 00 00 00 00 00 00 00 00 00 
       000011C8 00 00 00 00 00 00 00 00 00 00 
       000011D2 00 00 00 00 00 00 00 00 00 00 
       000011DC 00 00 00 00 00 00 00 00 00 00 
       000011E6 00 00 00 00 00 00 00 00 00 00 
       000011F0 00 00 00 00 00 00 00 00 00 00 
       000011FA 00 00 00 00 00 00 00 00 00 00 
       00001204 00 00 00 00 00 00 00 00 00 00 
  2521                                          [SECTION .text]
  2522 00001C25                                 	GLOBAL	_make_windows
  2523 00001C25                                 _make_windows:
  2524 00001C25 55                              	PUSH	EBP
  2525 00001C26 31 C9                           	XOR	ECX,ECX
  2526 00001C28 89 E5                           	MOV	EBP,ESP
  2527 00001C2A 57                              	PUSH	EDI
  2528 00001C2B 56                              	PUSH	ESI
  2529 00001C2C 53                              	PUSH	EBX
  2530 00001C2D 83 EC 0C                        	SUB	ESP,12
  2531 00001C30 8B 7D 0C                        	MOV	EDI,DWORD [12+EBP]
  2532 00001C33 8B 75 10                        	MOV	ESI,DWORD [16+EBP]
  2533 00001C36 C7 45 F0 00000000               	MOV	DWORD [-16+EBP],0
  2534 00001C3D                                 L288:
  2535 00001C3D 31 D2                           	XOR	EDX,EDX
  2536 00001C3F                                 L287:
  2537 00001C3F 8B 45 F0                        	MOV	EAX,DWORD [-16+EBP]
  2538 00001C42 8A 84 02 [000003FE]             	MOV	AL,BYTE [_table.4+EDX+EAX*1]
  2539 00001C49 88 45 EF                        	MOV	BYTE [-17+EBP],AL
  2540 00001C4C 3C 40                           	CMP	AL,64
  2541 00001C4E 74 61                           	JE	L293
  2542 00001C50 80 7D EF 4F                     	CMP	BYTE [-17+EBP],79
  2543 00001C54 74 46                           	JE	L294
  2544 00001C56 80 7D EF 6F                     	CMP	BYTE [-17+EBP],111
  2545 00001C5A 74 2B                           	JE	L295
  2546 00001C5C 8B 45 14                        	MOV	EAX,DWORD [20+EBP]
  2547 00001C5F 8B 5D 08                        	MOV	EBX,DWORD [8+EBP]
  2548 00001C62 01 C8                           	ADD	EAX,ECX
  2549 00001C64 0F AF C7                        	IMUL	EAX,EDI
  2550 00001C67 01 D0                           	ADD	EAX,EDX
  2551 00001C69 01 F0                           	ADD	EAX,ESI
  2552 00001C6B C6 04 18 0E                     	MOV	BYTE [EAX+EBX*1],14
  2553 00001C6F                                 L275:
  2554 00001C6F 42                              	INC	EDX
  2555 00001C70 83 FA 57                        	CMP	EDX,87
  2556 00001C73 7C CA                           	JL	L287
  2557 00001C75 41                              	INC	ECX
  2558 00001C76 83 45 F0 5A                     	ADD	DWORD [-16+EBP],90
  2559 00001C7A 83 F9 26                        	CMP	ECX,38
  2560 00001C7D 7C BE                           	JL	L288
  2561 00001C7F 83 C4 0C                        	ADD	ESP,12
  2562 00001C82 5B                              	POP	EBX
  2563 00001C83 5E                              	POP	ESI
  2564 00001C84 5F                              	POP	EDI
  2565 00001C85 5D                              	POP	EBP
  2566 00001C86 C3                              	RET
  2567 00001C87                                 L295:
  2568 00001C87 8B 45 14                        	MOV	EAX,DWORD [20+EBP]
  2569 00001C8A 8B 5D 08                        	MOV	EBX,DWORD [8+EBP]
  2570 00001C8D 01 C8                           	ADD	EAX,ECX
  2571 00001C8F 0F AF C7                        	IMUL	EAX,EDI
  2572 00001C92 01 D0                           	ADD	EAX,EDX
  2573 00001C94 01 F0                           	ADD	EAX,ESI
  2574 00001C96 C6 04 18 02                     	MOV	BYTE [EAX+EBX*1],2
  2575 00001C9A EB D3                           	JMP	L275
  2576 00001C9C                                 L294:
  2577 00001C9C 8B 45 14                        	MOV	EAX,DWORD [20+EBP]
  2578 00001C9F 8B 5D 08                        	MOV	EBX,DWORD [8+EBP]
  2579 00001CA2 01 C8                           	ADD	EAX,ECX
  2580 00001CA4 0F AF C7                        	IMUL	EAX,EDI
  2581 00001CA7 01 D0                           	ADD	EAX,EDX
  2582 00001CA9 01 F0                           	ADD	EAX,ESI
  2583 00001CAB C6 04 18 01                     	MOV	BYTE [EAX+EBX*1],1
  2584 00001CAF EB BE                           	JMP	L275
  2585 00001CB1                                 L293:
  2586 00001CB1 8B 45 14                        	MOV	EAX,DWORD [20+EBP]
  2587 00001CB4 8B 5D 08                        	MOV	EBX,DWORD [8+EBP]
  2588 00001CB7 01 C8                           	ADD	EAX,ECX
  2589 00001CB9 0F AF C7                        	IMUL	EAX,EDI
  2590 00001CBC 01 D0                           	ADD	EAX,EDX
  2591 00001CBE 01 F0                           	ADD	EAX,ESI
  2592 00001CC0 C6 04 18 04                     	MOV	BYTE [EAX+EBX*1],4
  2593 00001CC4 EB A9                           	JMP	L275
  2594 00001CC6                                 	GLOBAL	_make_window2
  2595 00001CC6                                 _make_window2:
  2596 00001CC6 55                              	PUSH	EBP
  2597 00001CC7 89 E5                           	MOV	EBP,ESP
  2598 00001CC9 57                              	PUSH	EDI
  2599 00001CCA 56                              	PUSH	ESI
  2600 00001CCB 8B 75 10                        	MOV	ESI,DWORD [16+EBP]
  2601 00001CCE 53                              	PUSH	EBX
  2602 00001CCF 8D 7E E8                        	LEA	EDI,DWORD [-24+ESI]
  2603 00001CD2 8D 5E FC                        	LEA	EBX,DWORD [-4+ESI]
  2604 00001CD5 57                              	PUSH	EDI
  2605 00001CD6 6A 13                           	PUSH	19
  2606 00001CD8 57                              	PUSH	EDI
  2607 00001CD9 6A 01                           	PUSH	1
  2608 00001CDB 6A 07                           	PUSH	7
  2609 00001CDD FF 75 0C                        	PUSH	DWORD [12+EBP]
  2610 00001CE0 FF 75 08                        	PUSH	DWORD [8+EBP]
  2611 00001CE3 E8 [00000000]                   	CALL	_boxfill8
  2612 00001CE8 53                              	PUSH	EBX
  2613 00001CE9 6A 00                           	PUSH	0
  2614 00001CEB 57                              	PUSH	EDI
  2615 00001CEC 6A 00                           	PUSH	0
  2616 00001CEE 6A 07                           	PUSH	7
  2617 00001CF0 FF 75 0C                        	PUSH	DWORD [12+EBP]
  2618 00001CF3 FF 75 08                        	PUSH	DWORD [8+EBP]
  2619 00001CF6 E8 [00000000]                   	CALL	_boxfill8
  2620 00001CFB 83 C4 38                        	ADD	ESP,56
  2621 00001CFE 53                              	PUSH	EBX
  2622 00001CFF 6A 13                           	PUSH	19
  2623 00001D01 53                              	PUSH	EBX
  2624 00001D02 6A 01                           	PUSH	1
  2625 00001D04 6A 0F                           	PUSH	15
  2626 00001D06 FF 75 0C                        	PUSH	DWORD [12+EBP]
  2627 00001D09 FF 75 08                        	PUSH	DWORD [8+EBP]
  2628 00001D0C E8 [00000000]                   	CALL	_boxfill8
  2629 00001D11 8D 46 FB                        	LEA	EAX,DWORD [-5+ESI]
  2630 00001D14 50                              	PUSH	EAX
  2631 00001D15 8D 46 E9                        	LEA	EAX,DWORD [-23+ESI]
  2632 00001D18 6A 13                           	PUSH	19
  2633 00001D1A 83 EE 03                        	SUB	ESI,3
  2634 00001D1D 50                              	PUSH	EAX
  2635 00001D1E 6A 13                           	PUSH	19
  2636 00001D20 6A 0F                           	PUSH	15
  2637 00001D22 FF 75 0C                        	PUSH	DWORD [12+EBP]
  2638 00001D25 FF 75 08                        	PUSH	DWORD [8+EBP]
  2639 00001D28 E8 [00000000]                   	CALL	_boxfill8
  2640 00001D2D 83 C4 38                        	ADD	ESP,56
  2641 00001D30 56                              	PUSH	ESI
  2642 00001D31 6A 13                           	PUSH	19
  2643 00001D33 56                              	PUSH	ESI
  2644 00001D34 6A 00                           	PUSH	0
  2645 00001D36 6A 00                           	PUSH	0
  2646 00001D38 FF 75 0C                        	PUSH	DWORD [12+EBP]
  2647 00001D3B FF 75 08                        	PUSH	DWORD [8+EBP]
  2648 00001D3E E8 [00000000]                   	CALL	_boxfill8
  2649 00001D43 56                              	PUSH	ESI
  2650 00001D44 6A 14                           	PUSH	20
  2651 00001D46 57                              	PUSH	EDI
  2652 00001D47 6A 14                           	PUSH	20
  2653 00001D49 6A 00                           	PUSH	0
  2654 00001D4B FF 75 0C                        	PUSH	DWORD [12+EBP]
  2655 00001D4E FF 75 08                        	PUSH	DWORD [8+EBP]
  2656 00001D51 E8 [00000000]                   	CALL	_boxfill8
  2657 00001D56 8D 65 F4                        	LEA	ESP,DWORD [-12+EBP]
  2658 00001D59 5B                              	POP	EBX
  2659 00001D5A 5E                              	POP	ESI
  2660 00001D5B 5F                              	POP	EDI
  2661 00001D5C 5D                              	POP	EBP
  2662 00001D5D C3                              	RET
  2663                                          [SECTION .data]
  2664 0000120E                                 _table.5:
  2665 0000120E 09 09 20 20 20 20 20 20 20 20   	DB	0x09,0x09,"                                .]]]]O@@@@@@@@@@@@@@@@@@@@@@@@@@@@@@@@@@@@@@@@@@@@@@@@@@@@@@@@@@@@@@@@@@@@@@@@@@@@@@@@@@@@@@@@@@@@@@@@@@@@@@@@@]]].                        ",0x00
       00001218 20 20 20 20 20 20 20 20 20 20 
       00001222 20 20 20 20 20 20 20 20 20 20 
       0000122C 20 20 20 20 2E 5D 5D 5D 5D 4F 
       00001236 40 40 40 40 40 40 40 40 40 40 
       00001240 40 40 40 40 40 40 40 40 40 40 
       0000124A 40 40 40 40 40 40 40 40 40 40 
       00001254 40 40 40 40 40 40 40 40 40 40 
       0000125E 40 40 40 40 40 40 40 40 40 40 
       00001268 40 40 40 40 40 40 40 40 40 40 
       00001272 40 40 40 40 40 40 40 40 40 40 
       0000127C 40 40 40 40 40 40 40 40 40 40 
       00001286 40 40 40 40 40 40 40 40 40 40 
       00001290 40 40 40 40 40 40 40 40 40 40 
       0000129A 40 40 40 40 40 5D 5D 5D 2E 20 
       000012A4 20 20 20 20 20 20 20 20 20 20 
       000012AE 20 20 20 20 20 20 20 20 20 20 
       000012B8 20 20 20 00 
  2666 000012BC 00                              	RESB	1
  2667 000012BD 20 20 20 20 20 20 20 20 20 20   	DB	"                         ,]@@OOOOOOOOOOOOOOOOOOOOOOOOOOOOOOOOOOOOOOOOOOOOOOOOOOOOOOOOOOOOOOOOOOOOOOOOOOOOOOOOOOOOOOOOOOOOOOO@@@@@@@@@@@@@@@@@O@@@@@@@@@@@                      "
       000012C7 20 20 20 20 20 20 20 20 20 20 
       000012D1 20 20 20 20 20 2C 5D 40 40 4F 
       000012DB 4F 4F 4F 4F 4F 4F 4F 4F 4F 4F 
       000012E5 4F 4F 4F 4F 4F 4F 4F 4F 4F 4F 
       000012EF 4F 4F 4F 4F 4F 4F 4F 4F 4F 4F 
       000012F9 4F 4F 4F 4F 4F 4F 4F 4F 4F 4F 
       00001303 4F 4F 4F 4F 4F 4F 4F 4F 4F 4F 
       0000130D 4F 4F 4F 4F 4F 4F 4F 4F 4F 4F 
       00001317 4F 4F 4F 4F 4F 4F 4F 4F 4F 4F 
       00001321 4F 4F 4F 4F 4F 4F 4F 4F 4F 4F 
       0000132B 4F 4F 4F 4F 4F 4F 4F 4F 4F 4F 
       00001335 4F 4F 4F 4F 40 40 40 40 40 40 
       0000133F 40 40 40 40 40 40 40 40 40 40 
       00001349 40 4F 40 40 40 40 40 40 40 40 
       00001353 40 40 40 20 20 20 20 20 20 20 
       0000135D 20 20 20 20 20 20 20 20 20 20 
       00001367 20 20 20 20 20 
  2668 0000136C 20 20 20 20 20 20 20 20 20 20   	DB	"                     ,/@OOOOOOOOOOOOOOOOOOOOOOOOOOOOOOOOOOOOOOOOOOOOOOOOOOOOOOOOOOOOOOOOOOOOOOOOOOOOOOOOOOOOOOOOOO@OOOOOOOOO@OOO@@@@@@@@@@@@@@@@@@@@@OOOOO@@@`                 "
       00001376 20 20 20 20 20 20 20 20 20 20 
       00001380 20 2C 2F 40 4F 4F 4F 4F 4F 4F 
       0000138A 4F 4F 4F 4F 4F 4F 4F 4F 4F 4F 
       00001394 4F 4F 4F 4F 4F 4F 4F 4F 4F 4F 
       0000139E 4F 4F 4F 4F 4F 4F 4F 4F 4F 4F 
       000013A8 4F 4F 4F 4F 4F 4F 4F 4F 4F 4F 
       000013B2 4F 4F 4F 4F 4F 4F 4F 4F 4F 4F 
       000013BC 4F 4F 4F 4F 4F 4F 4F 4F 4F 4F 
       000013C6 4F 4F 4F 4F 4F 4F 4F 4F 4F 4F 
       000013D0 4F 4F 4F 4F 4F 4F 4F 4F 4F 4F 
       000013DA 4F 4F 4F 4F 40 4F 4F 4F 4F 4F 
       000013E4 4F 4F 4F 4F 40 4F 4F 4F 40 40 
       000013EE 40 40 40 40 40 40 40 40 40 40 
       000013F8 40 40 40 40 40 40 40 40 40 4F 
       00001402 4F 4F 4F 4F 40 40 40 60 20 20 
       0000140C 20 20 20 20 20 20 20 20 20 20 
       00001416 20 20 20 20 20 
  2669 0000141B 20 20 20 20 20 20 20 20 20 20   	DB	"                  /@OOOOOOOOOOOOOOOOOOOOOOOOOOOOOOOOOOOOOOOOOOOOOOOOOOOOOOOOOOOOOOOOOOOOOOOOOOOOOOOOOOOOOOOOOOOOooooOO@OOOOOOOOOOOOOOO@@@@@@@@@@@@@@@OOO@OOOOO@@@              "
       00001425 20 20 20 20 20 20 20 20 2F 40 
       0000142F 4F 4F 4F 4F 4F 4F 4F 4F 4F 4F 
       00001439 4F 4F 4F 4F 4F 4F 4F 4F 4F 4F 
       00001443 4F 4F 4F 4F 4F 4F 4F 4F 4F 4F 
       0000144D 4F 4F 4F 4F 4F 4F 4F 4F 4F 4F 
       00001457 4F 4F 4F 4F 4F 4F 4F 4F 4F 4F 
       00001461 4F 4F 4F 4F 4F 4F 4F 4F 4F 4F 
       0000146B 4F 4F 4F 4F 4F 4F 4F 4F 4F 4F 
       00001475 4F 4F 4F 4F 4F 4F 4F 4F 4F 4F 
       0000147F 4F 4F 4F 4F 4F 4F 4F 4F 4F 4F 
       00001489 4F 4F 6F 6F 6F 6F 4F 4F 40 4F 
       00001493 4F 4F 4F 4F 4F 4F 4F 4F 4F 4F 
       0000149D 4F 4F 4F 4F 40 40 40 40 40 40 
       000014A7 40 40 40 40 40 40 40 40 40 4F 
       000014B1 4F 4F 40 4F 4F 4F 4F 4F 40 40 
       000014BB 40 20 20 20 20 20 20 20 20 20 
       000014C5 20 20 20 20 20 
  2670 000014CA 20 20 20 20 20 20 20 20 20 20   	DB	"               ]@OOOOOOOOOOOOOOOOOOOOOOOOOOOOOOOOOOOOOOOOOOOOOOOOOOOOOOOOOOOOOOOOOOOOOOOOOOOOOOOOOOOOOOOOOOOOOOoooooooOOOOOOOOOOOOOOOOOO@@@@@@@@@@@@@OOO@OOOOOOOO@@@]          "
       000014D4 20 20 20 20 20 5D 40 4F 4F 4F 
       000014DE 4F 4F 4F 4F 4F 4F 4F 4F 4F 4F 
       000014E8 4F 4F 4F 4F 4F 4F 4F 4F 4F 4F 
       000014F2 4F 4F 4F 4F 4F 4F 4F 4F 4F 4F 
       000014FC 4F 4F 4F 4F 4F 4F 4F 4F 4F 4F 
       00001506 4F 4F 4F 4F 4F 4F 4F 4F 4F 4F 
       00001510 4F 4F 4F 4F 4F 4F 4F 4F 4F 4F 
       0000151A 4F 4F 4F 4F 4F 4F 4F 4F 4F 4F 
       00001524 4F 4F 4F 4F 4F 4F 4F 4F 4F 4F 
       0000152E 4F 4F 4F 4F 4F 4F 4F 4F 4F 4F 
       00001538 4F 6F 6F 6F 6F 6F 6F 6F 4F 4F 
       00001542 4F 4F 4F 4F 4F 4F 4F 4F 4F 4F 
       0000154C 4F 4F 4F 4F 4F 4F 40 40 40 40 
       00001556 40 40 40 40 40 40 40 40 40 4F 
       00001560 4F 4F 40 4F 4F 4F 4F 4F 4F 4F 
       0000156A 4F 40 40 40 5D 20 20 20 20 20 
       00001574 20 20 20 20 20 
  2671 00001579 20 20 20 20 20 20 20 20 20 20   	DB	"             /OOOOOOOOOOOOOOOOOOOOOOOOOOOOOOOOOOOOOOOOOOOOOOOOOOOOOOOOOOOOOOOOOOOOOOOOOOOOOOOOOOOOOOOOOOOOOOOOOoooooooOOOOOOOOOOOOOOOOOO@@@@@@@@@@@@@@OOOOOOOOOOOOOO@@         "
       00001583 20 20 20 2F 4F 4F 4F 4F 4F 4F 
       0000158D 4F 4F 4F 4F 4F 4F 4F 4F 4F 4F 
       00001597 4F 4F 4F 4F 4F 4F 4F 4F 4F 4F 
       000015A1 4F 4F 4F 4F 4F 4F 4F 4F 4F 4F 
       000015AB 4F 4F 4F 4F 4F 4F 4F 4F 4F 4F 
       000015B5 4F 4F 4F 4F 4F 4F 4F 4F 4F 4F 
       000015BF 4F 4F 4F 4F 4F 4F 4F 4F 4F 4F 
       000015C9 4F 4F 4F 4F 4F 4F 4F 4F 4F 4F 
       000015D3 4F 4F 4F 4F 4F 4F 4F 4F 4F 4F 
       000015DD 4F 4F 4F 4F 4F 4F 4F 4F 4F 4F 
       000015E7 4F 6F 6F 6F 6F 6F 6F 6F 4F 4F 
       000015F1 4F 4F 4F 4F 4F 4F 4F 4F 4F 4F 
       000015FB 4F 4F 4F 4F 4F 4F 40 40 40 40 
       00001605 40 40 40 40 40 40 40 40 40 40 
       0000160F 4F 4F 4F 4F 4F 4F 4F 4F 4F 4F 
       00001619 4F 4F 4F 4F 40 40 20 20 20 20 
       00001623 20 20 20 20 20 
  2672 00001628 20 20 20 20 20 20 20 20 20 20   	DB	"           /OOOOOOOOOOOOOOOOOOOOOOOOOOOOOOOOOOOOOOOOOOOOOOOOOOOOOOOOOOOOOOOOOOOOOOOOOOOOOOOOOOOOOOOOOOOOOOOOOOOOOoooOOOOOOOOOOOOOOOOOOOOOOOO@@@@@@@@@@@OOOOOOOOOOOOOOO@@       "
       00001632 20 2F 4F 4F 4F 4F 4F 4F 4F 4F 
       0000163C 4F 4F 4F 4F 4F 4F 4F 4F 4F 4F 
       00001646 4F 4F 4F 4F 4F 4F 4F 4F 4F 4F 
       00001650 4F 4F 4F 4F 4F 4F 4F 4F 4F 4F 
       0000165A 4F 4F 4F 4F 4F 4F 4F 4F 4F 4F 
       00001664 4F 4F 4F 4F 4F 4F 4F 4F 4F 4F 
       0000166E 4F 4F 4F 4F 4F 4F 4F 4F 4F 4F 
       00001678 4F 4F 4F 4F 4F 4F 4F 4F 4F 4F 
       00001682 4F 4F 4F 4F 4F 4F 4F 4F 4F 4F 
       0000168C 4F 4F 4F 4F 4F 4F 4F 4F 4F 4F 
       00001696 4F 4F 4F 6F 6F 6F 4F 4F 4F 4F 
       000016A0 4F 4F 4F 4F 4F 4F 4F 4F 4F 4F 
       000016AA 4F 4F 4F 4F 4F 4F 4F 4F 4F 4F 
       000016B4 40 40 40 40 40 40 40 40 40 40 
       000016BE 40 4F 4F 4F 4F 4F 4F 4F 4F 4F 
       000016C8 4F 4F 4F 4F 4F 4F 40 40 20 20 
       000016D2 20 20 20 20 20 
  2673 000016D7 20 20 20 20 20 20 20 20 20 2F   	DB	"         /OOOOOOOOOOOOOOOOOOOOOOOOOOOOOOOOOOOOOOOOOOOOOOOOOOOOOOOOOOOOOOOOOOOOOOOOOOOOOOOOOOOOOOOOOOOOOOOOOOOOOOOOOOOOOOOOOOOOOOOOOOOOOOOOOOO@@@@@@@@@@OOOOOOOOOOOOOOOOO@@     "
       000016E1 4F 4F 4F 4F 4F 4F 4F 4F 4F 4F 
       000016EB 4F 4F 4F 4F 4F 4F 4F 4F 4F 4F 
       000016F5 4F 4F 4F 4F 4F 4F 4F 4F 4F 4F 
       000016FF 4F 4F 4F 4F 4F 4F 4F 4F 4F 4F 
       00001709 4F 4F 4F 4F 4F 4F 4F 4F 4F 4F 
       00001713 4F 4F 4F 4F 4F 4F 4F 4F 4F 4F 
       0000171D 4F 4F 4F 4F 4F 4F 4F 4F 4F 4F 
       00001727 4F 4F 4F 4F 4F 4F 4F 4F 4F 4F 
       00001731 4F 4F 4F 4F 4F 4F 4F 4F 4F 4F 
       0000173B 4F 4F 4F 4F 4F 4F 4F 4F 4F 4F 
       00001745 4F 4F 4F 4F 4F 4F 4F 4F 4F 4F 
       0000174F 4F 4F 4F 4F 4F 4F 4F 4F 4F 4F 
       00001759 4F 4F 4F 4F 4F 4F 4F 4F 4F 4F 
       00001763 4F 40 40 40 40 40 40 40 40 40 
       0000176D 40 4F 4F 4F 4F 4F 4F 4F 4F 4F 
       00001777 4F 4F 4F 4F 4F 4F 4F 4F 40 40 
       00001781 20 20 20 20 20 
  2674 00001786 20 20 20 20 20 20 20 2C 4F 4F   	DB	"       ,OOOOOOOOOOOOOOOOOOOOOOOOOOOOOOOOOOOOOOOOOOOOOOOOOOOOOOOOOOOOOOOOOOOOOOOOOOOOOOOOOOOOOOOOOOOOOOOOOOOOOOOOOOOOOOOOOOOOOOOOOOOOOOOOOOOOOOOO@@O@@@@@O@@@@OOOOO@OOOOOOO@@`  "
       00001790 4F 4F 4F 4F 4F 4F 4F 4F 4F 4F 
       0000179A 4F 4F 4F 4F 4F 4F 4F 4F 4F 4F 
       000017A4 4F 4F 4F 4F 4F 4F 4F 4F 4F 4F 
       000017AE 4F 4F 4F 4F 4F 4F 4F 4F 4F 4F 
       000017B8 4F 4F 4F 4F 4F 4F 4F 4F 4F 4F 
       000017C2 4F 4F 4F 4F 4F 4F 4F 4F 4F 4F 
       000017CC 4F 4F 4F 4F 4F 4F 4F 4F 4F 4F 
       000017D6 4F 4F 4F 4F 4F 4F 4F 4F 4F 4F 
       000017E0 4F 4F 4F 4F 4F 4F 4F 4F 4F 4F 
       000017EA 4F 4F 4F 4F 4F 4F 4F 4F 4F 4F 
       000017F4 4F 4F 4F 4F 4F 4F 4F 4F 4F 4F 
       000017FE 4F 4F 4F 4F 4F 4F 4F 4F 4F 4F 
       00001808 4F 4F 4F 4F 4F 4F 4F 4F 4F 4F 
       00001812 4F 4F 4F 4F 40 40 4F 40 40 40 
       0000181C 40 40 4F 40 40 40 40 4F 4F 4F 
       00001826 4F 4F 40 4F 4F 4F 4F 4F 4F 4F 
       00001830 40 40 60 20 20 
  2675 00001835 20 20 20 20 20 20 2F 4F 4F 4F   	DB	"      /OOOOOOOOOOOOOOOOOOOOOOOOOOOOOOOOOOOOOOOOOOOOOOOOOOOOOOOOOOOOOOOOOOOOOOOOOOOOOOOOOOOOOOOOOOOOOOOOOOOOOOOOOOOOOOOOOOOOOOOOOOOOOOOOOOOOOOOOOO@@@@@@@@@@@@@OOOOOOOOOOOOOO@  "
       0000183F 4F 4F 4F 4F 4F 4F 4F 4F 4F 4F 
       00001849 4F 4F 4F 4F 4F 4F 4F 4F 4F 4F 
       00001853 4F 4F 4F 4F 4F 4F 4F 4F 4F 4F 
       0000185D 4F 4F 4F 4F 4F 4F 4F 4F 4F 4F 
       00001867 4F 4F 4F 4F 4F 4F 4F 4F 4F 4F 
       00001871 4F 4F 4F 4F 4F 4F 4F 4F 4F 4F 
       0000187B 4F 4F 4F 4F 4F 4F 4F 4F 4F 4F 
       00001885 4F 4F 4F 4F 4F 4F 4F 4F 4F 4F 
       0000188F 4F 4F 4F 4F 4F 4F 4F 4F 4F 4F 
       00001899 4F 4F 4F 4F 4F 4F 4F 4F 4F 4F 
       000018A3 4F 4F 4F 4F 4F 4F 4F 4F 4F 4F 
       000018AD 4F 4F 4F 4F 4F 4F 4F 4F 4F 4F 
       000018B7 4F 4F 4F 4F 4F 4F 4F 4F 4F 4F 
       000018C1 4F 4F 4F 4F 4F 40 40 40 40 40 
       000018CB 40 40 40 40 40 40 40 40 4F 4F 
       000018D5 4F 4F 4F 4F 4F 4F 4F 4F 4F 4F 
       000018DF 4F 4F 40 20 20 
  2676 000018E4 20 20 20 20 20 2F 4F 4F 4F 4F   	DB	"     /OOOOOOOOOOOOOOOOOOOOOOOOOOOOOOOOOOOOOOOOOOOOOOOOOOOOOOOOOOOOOOOOOOOOOOOOOOOOOOOOOOOOOOOOOOOOOOOOOOOOOOOOOOOOOOOOOOOOOOOOOOOOOOOOOOOOOOOOOOOO@@@@@@@O@@@@@OOOOOOOOOOOOOO@ "
       000018EE 4F 4F 4F 4F 4F 4F 4F 4F 4F 4F 
       000018F8 4F 4F 4F 4F 4F 4F 4F 4F 4F 4F 
       00001902 4F 4F 4F 4F 4F 4F 4F 4F 4F 4F 
       0000190C 4F 4F 4F 4F 4F 4F 4F 4F 4F 4F 
       00001916 4F 4F 4F 4F 4F 4F 4F 4F 4F 4F 
       00001920 4F 4F 4F 4F 4F 4F 4F 4F 4F 4F 
       0000192A 4F 4F 4F 4F 4F 4F 4F 4F 4F 4F 
       00001934 4F 4F 4F 4F 4F 4F 4F 4F 4F 4F 
       0000193E 4F 4F 4F 4F 4F 4F 4F 4F 4F 4F 
       00001948 4F 4F 4F 4F 4F 4F 4F 4F 4F 4F 
       00001952 4F 4F 4F 4F 4F 4F 4F 4F 4F 4F 
       0000195C 4F 4F 4F 4F 4F 4F 4F 4F 4F 4F 
       00001966 4F 4F 4F 4F 4F 4F 4F 4F 4F 4F 
       00001970 4F 4F 4F 4F 4F 4F 40 40 40 40 
       0000197A 40 40 40 4F 40 40 40 40 40 4F 
       00001984 4F 4F 4F 4F 4F 4F 4F 4F 4F 4F 
       0000198E 4F 4F 4F 40 20 
  2677 00001993 20 20 20 20 2F 4F 4F 4F 4F 4F   	DB	"    /OOOOOOOOOOOOOOOOOOOOOOOOOOOOOOOOOOOOOOOOOOOOOOOOOOOOOOOOOOOOOOOOOOOOOOOOOOOOOOOOOOOOOOOOOOOOOOOOOOOOOOOOOOOOOOOOOOOOOOOOOOOOOOOOOOOOOOOOOOOOOOOOO@@O@@@@O@@OOOOOOOOOOOOOO@"
       0000199D 4F 4F 4F 4F 4F 4F 4F 4F 4F 4F 
       000019A7 4F 4F 4F 4F 4F 4F 4F 4F 4F 4F 
       000019B1 4F 4F 4F 4F 4F 4F 4F 4F 4F 4F 
       000019BB 4F 4F 4F 4F 4F 4F 4F 4F 4F 4F 
       000019C5 4F 4F 4F 4F 4F 4F 4F 4F 4F 4F 
       000019CF 4F 4F 4F 4F 4F 4F 4F 4F 4F 4F 
       000019D9 4F 4F 4F 4F 4F 4F 4F 4F 4F 4F 
       000019E3 4F 4F 4F 4F 4F 4F 4F 4F 4F 4F 
       000019ED 4F 4F 4F 4F 4F 4F 4F 4F 4F 4F 
       000019F7 4F 4F 4F 4F 4F 4F 4F 4F 4F 4F 
       00001A01 4F 4F 4F 4F 4F 4F 4F 4F 4F 4F 
       00001A0B 4F 4F 4F 4F 4F 4F 4F 4F 4F 4F 
       00001A15 4F 4F 4F 4F 4F 4F 4F 4F 4F 4F 
       00001A1F 4F 4F 4F 4F 4F 4F 4F 4F 4F 4F 
       00001A29 40 40 4F 40 40 40 40 4F 40 40 
       00001A33 4F 4F 4F 4F 4F 4F 4F 4F 4F 4F 
       00001A3D 4F 4F 4F 4F 40 
  2678 00001A42 20 20 20 4F 4F 4F 4F 4F 4F 4F   	DB	"   OOOOOOOOOOOOOOOOOOOOOOOOOOOOOOOOOOOOOOOOOOOOOOOOOOOOOO@@@@@@@@@@@OOOOOOOOOOOOOOOOOOOOOOOOOOOOOOOOOOOOOOOOOOOOOOO@@@@@@@@@@@OOOOOOOOOOOOOOOOOOOOOOOOOO@O@@@@@@@@@@OOOOOOOOOOO"
       00001A4C 4F 4F 4F 4F 4F 4F 4F 4F 4F 4F 
       00001A56 4F 4F 4F 4F 4F 4F 4F 4F 4F 4F 
       00001A60 4F 4F 4F 4F 4F 4F 4F 4F 4F 4F 
       00001A6A 4F 4F 4F 4F 4F 4F 4F 4F 4F 4F 
       00001A74 4F 4F 4F 4F 4F 4F 4F 40 40 40 
       00001A7E 40 40 40 40 40 40 40 40 4F 4F 
       00001A88 4F 4F 4F 4F 4F 4F 4F 4F 4F 4F 
       00001A92 4F 4F 4F 4F 4F 4F 4F 4F 4F 4F 
       00001A9C 4F 4F 4F 4F 4F 4F 4F 4F 4F 4F 
       00001AA6 4F 4F 4F 4F 4F 4F 4F 4F 4F 4F 
       00001AB0 4F 4F 4F 4F 4F 40 40 40 40 40 
       00001ABA 40 40 40 40 40 40 4F 4F 4F 4F 
       00001AC4 4F 4F 4F 4F 4F 4F 4F 4F 4F 4F 
       00001ACE 4F 4F 4F 4F 4F 4F 4F 4F 4F 4F 
       00001AD8 4F 4F 40 4F 40 40 40 40 40 40 
       00001AE2 40 40 40 40 4F 4F 4F 4F 4F 4F 
       00001AEC 4F 4F 4F 4F 4F 
  2679 00001AF1 20 20 3D 4F 4F 4F 4F 4F 4F 4F   	DB	"  =OOOOOOOOOOOOOOOOOOOOOOOOOOOOOOOOOOOOOOOOOOOOOOOOOOO@@@@@@@@@@@@@@@OOOOOOOOOOOOOOOOOOOOOOOOOOOOOOOOOOOOOOOOOOOO@@@@@@@@@@@@@@@@OOOOOOOOOOOOOOOOOOOOOOO@O@@@@@@@@@@@OOOOOOOOOO"
       00001AFB 4F 4F 4F 4F 4F 4F 4F 4F 4F 4F 
       00001B05 4F 4F 4F 4F 4F 4F 4F 4F 4F 4F 
       00001B0F 4F 4F 4F 4F 4F 4F 4F 4F 4F 4F 
       00001B19 4F 4F 4F 4F 4F 4F 4F 4F 4F 4F 
       00001B23 4F 4F 4F 4F 40 40 40 40 40 40 
       00001B2D 40 40 40 40 40 40 40 40 40 4F 
       00001B37 4F 4F 4F 4F 4F 4F 4F 4F 4F 4F 
       00001B41 4F 4F 4F 4F 4F 4F 4F 4F 4F 4F 
       00001B4B 4F 4F 4F 4F 4F 4F 4F 4F 4F 4F 
       00001B55 4F 4F 4F 4F 4F 4F 4F 4F 4F 4F 
       00001B5F 4F 4F 4F 40 40 40 40 40 40 40 
       00001B69 40 40 40 40 40 40 40 40 40 4F 
       00001B73 4F 4F 4F 4F 4F 4F 4F 4F 4F 4F 
       00001B7D 4F 4F 4F 4F 4F 4F 4F 4F 4F 4F 
       00001B87 4F 4F 40 4F 40 40 40 40 40 40 
       00001B91 40 40 40 40 40 4F 4F 4F 4F 4F 
       00001B9B 4F 4F 4F 4F 4F 
  2680 00001BA0 20 2C 4F 4F 4F 4F 4F 4F 4F 4F   	DB	" ,OOOOOOOOOOOOOOOOOOOOOOOOOOOOOOOOOOOOOOOOOOOOOOOOO@@@@@@@@@@@@@@@@@@OOOOOOOOOOOOOOOOOOOOOOOOOOOOOOOOOOOOOOOOOOOOO@@@@@@@@@@@@@@@@@@OOOOOOOOOOOOOOOOOOOOOOOO@OO@@@@@@OOO@OOOOOO"
       00001BAA 4F 4F 4F 4F 4F 4F 4F 4F 4F 4F 
       00001BB4 4F 4F 4F 4F 4F 4F 4F 4F 4F 4F 
       00001BBE 4F 4F 4F 4F 4F 4F 4F 4F 4F 4F 
       00001BC8 4F 4F 4F 4F 4F 4F 4F 4F 4F 4F 
       00001BD2 4F 40 40 40 40 40 40 40 40 40 
       00001BDC 40 40 40 40 40 40 40 40 40 4F 
       00001BE6 4F 4F 4F 4F 4F 4F 4F 4F 4F 4F 
       00001BF0 4F 4F 4F 4F 4F 4F 4F 4F 4F 4F 
       00001BFA 4F 4F 4F 4F 4F 4F 4F 4F 4F 4F 
       00001C04 4F 4F 4F 4F 4F 4F 4F 4F 4F 4F 
       00001C0E 4F 4F 4F 4F 40 40 40 40 40 40 
       00001C18 40 40 40 40 40 40 40 40 40 40 
       00001C22 40 40 4F 4F 4F 4F 4F 4F 4F 4F 
       00001C2C 4F 4F 4F 4F 4F 4F 4F 4F 4F 4F 
       00001C36 4F 4F 4F 4F 4F 4F 40 4F 4F 40 
       00001C40 40 40 40 40 40 4F 4F 4F 40 4F 
       00001C4A 4F 4F 4F 4F 4F 
  2681 00001C4F 20 2F 4F 4F 4F 4F 4F 4F 4F 4F   	DB	" /OOOOOOOOOOOOOOOOOOOOOOOOOOOOOOOOOOOOOOOOOOOOOOO@@@@@@@@@@@@@@@@OOOOOOOOOOOOOOOOOOOOOOOOOOOOOOOOOOOOOOOOOOOOOOOOOOOO@@@@@@@@@@@@@@@@@OOOOOOOOOOOOOOOOOOOOOOO@@@@@@@@@OOOOOOOOO"
       00001C59 4F 4F 4F 4F 4F 4F 4F 4F 4F 4F 
       00001C63 4F 4F 4F 4F 4F 4F 4F 4F 4F 4F 
       00001C6D 4F 4F 4F 4F 4F 4F 4F 4F 4F 4F 
       00001C77 4F 4F 4F 4F 4F 4F 4F 4F 4F 40 
       00001C81 40 40 40 40 40 40 40 40 40 40 
       00001C8B 40 40 40 40 40 4F 4F 4F 4F 4F 
       00001C95 4F 4F 4F 4F 4F 4F 4F 4F 4F 4F 
       00001C9F 4F 4F 4F 4F 4F 4F 4F 4F 4F 4F 
       00001CA9 4F 4F 4F 4F 4F 4F 4F 4F 4F 4F 
       00001CB3 4F 4F 4F 4F 4F 4F 4F 4F 4F 4F 
       00001CBD 4F 4F 4F 4F 4F 4F 4F 40 40 40 
       00001CC7 40 40 40 40 40 40 40 40 40 40 
       00001CD1 40 40 40 40 4F 4F 4F 4F 4F 4F 
       00001CDB 4F 4F 4F 4F 4F 4F 4F 4F 4F 4F 
       00001CE5 4F 4F 4F 4F 4F 4F 4F 40 40 40 
       00001CEF 40 40 40 40 40 40 4F 4F 4F 4F 
       00001CF9 4F 4F 4F 4F 4F 
  2682 00001CFE 2E 4F 4F 4F 4F 4F 4F 4F 4F 4F   	DB	".OOOOOOOOOOOOOOOOOOOOOOOOOOOOOOOOOOOOOOOOOOOOOOO@@@@@@@@@@OOOOOOOOOOOOOOOOOOOOO[[`                ,[[OOOOOOOOOOOOOOOOOOOOOOO@@@@@@@@@@@OOOOOOOOOOOOOOOOOOOOOOO@@@@@@@@@@OOOOOOO"
       00001D08 4F 4F 4F 4F 4F 4F 4F 4F 4F 4F 
       00001D12 4F 4F 4F 4F 4F 4F 4F 4F 4F 4F 
       00001D1C 4F 4F 4F 4F 4F 4F 4F 4F 4F 4F 
       00001D26 4F 4F 4F 4F 4F 4F 4F 4F 40 40 
       00001D30 40 40 40 40 40 40 40 40 4F 4F 
       00001D3A 4F 4F 4F 4F 4F 4F 4F 4F 4F 4F 
       00001D44 4F 4F 4F 4F 4F 4F 4F 4F 4F 5B 
       00001D4E 5B 60 20 20 20 20 20 20 20 20 
       00001D58 20 20 20 20 20 20 20 20 2C 5B 
       00001D62 5B 4F 4F 4F 4F 4F 4F 4F 4F 4F 
       00001D6C 4F 4F 4F 4F 4F 4F 4F 4F 4F 4F 
       00001D76 4F 4F 4F 4F 40 40 40 40 40 40 
       00001D80 40 40 40 40 40 4F 4F 4F 4F 4F 
       00001D8A 4F 4F 4F 4F 4F 4F 4F 4F 4F 4F 
       00001D94 4F 4F 4F 4F 4F 4F 4F 4F 40 40 
       00001D9E 40 40 40 40 40 40 40 40 4F 4F 
       00001DA8 4F 4F 4F 4F 4F 
  2683 00001DAD 3D 4F 4F 4F 4F 4F 4F 4F 4F 4F   	DB	"=OOOOOOOOOOOOOOOOOOOOOOOOOOOOOOOOOOOOOOOOOOOOOO@@@@@@@@@OOOOOOOOOOOOOOOOO[`                              ,OOOOOOOOOOOOOOOOOOOO@@@@@@@@@OOOOOOOOOOOOOOOOOOOOOOOOOOO@@@@@OO@@@@OO"
       00001DB7 4F 4F 4F 4F 4F 4F 4F 4F 4F 4F 
       00001DC1 4F 4F 4F 4F 4F 4F 4F 4F 4F 4F 
       00001DCB 4F 4F 4F 4F 4F 4F 4F 4F 4F 4F 
       00001DD5 4F 4F 4F 4F 4F 4F 4F 40 40 40 
       00001DDF 40 40 40 40 40 40 4F 4F 4F 4F 
       00001DE9 4F 4F 4F 4F 4F 4F 4F 4F 4F 4F 
       00001DF3 4F 4F 4F 5B 60 20 20 20 20 20 
       00001DFD 20 20 20 20 20 20 20 20 20 20 
       00001E07 20 20 20 20 20 20 20 20 20 20 
       00001E11 20 20 20 20 20 2C 4F 4F 4F 4F 
       00001E1B 4F 4F 4F 4F 4F 4F 4F 4F 4F 4F 
       00001E25 4F 4F 4F 4F 4F 4F 40 40 40 40 
       00001E2F 40 40 40 40 40 4F 4F 4F 4F 4F 
       00001E39 4F 4F 4F 4F 4F 4F 4F 4F 4F 4F 
       00001E43 4F 4F 4F 4F 4F 4F 4F 4F 4F 4F 
       00001E4D 4F 4F 40 40 40 40 40 4F 4F 40 
       00001E57 40 40 40 4F 4F 
  2684 00001E5C 3D 4F 4F 4F 4F 4F 4F 4F 4F 4F   	DB	"=OOOOOOOOOOOOOOOOOOOOOOOOOOOOOOOOOOOOOOOOOOOOOO@@@@@@@OOOOOOOOOOOOOO/`                                        [OOOOOOOOOOOOOOOOO@@@@@@@@OOOOOOOOOOOOOOOOOOOOOOOOOOOO@@@@O@O@@@O"
       00001E66 4F 4F 4F 4F 4F 4F 4F 4F 4F 4F 
       00001E70 4F 4F 4F 4F 4F 4F 4F 4F 4F 4F 
       00001E7A 4F 4F 4F 4F 4F 4F 4F 4F 4F 4F 
       00001E84 4F 4F 4F 4F 4F 4F 4F 40 40 40 
       00001E8E 40 40 40 40 4F 4F 4F 4F 4F 4F 
       00001E98 4F 4F 4F 4F 4F 4F 4F 4F 2F 60 
       00001EA2 20 20 20 20 20 20 20 20 20 20 
       00001EAC 20 20 20 20 20 20 20 20 20 20 
       00001EB6 20 20 20 20 20 20 20 20 20 20 
       00001EC0 20 20 20 20 20 20 20 20 20 20 
       00001ECA 5B 4F 4F 4F 4F 4F 4F 4F 4F 4F 
       00001ED4 4F 4F 4F 4F 4F 4F 4F 4F 40 40 
       00001EDE 40 40 40 40 40 40 4F 4F 4F 4F 
       00001EE8 4F 4F 4F 4F 4F 4F 4F 4F 4F 4F 
       00001EF2 4F 4F 4F 4F 4F 4F 4F 4F 4F 4F 
       00001EFC 4F 4F 4F 4F 40 40 40 40 4F 40 
       00001F06 4F 40 40 40 4F 
  2685 00001F0B 4F 4F 4F 4F 4F 4F 4F 4F 4F 4F   	DB	"OOOOOOOOOOOOOOOOOOOOOOOOOOOOOOOOOOOOOOOOOOOOOOOO@@@@OOOOOOOOOOOOO/.                                              ,OOOOOOOOOOOOOOOOO@@@@OOOOOOOOOOOOOOOOOOOOOOOOOOOOO@@@@O@O@@@@"
       00001F15 4F 4F 4F 4F 4F 4F 4F 4F 4F 4F 
       00001F1F 4F 4F 4F 4F 4F 4F 4F 4F 4F 4F 
       00001F29 4F 4F 4F 4F 4F 4F 4F 4F 4F 4F 
       00001F33 4F 4F 4F 4F 4F 4F 4F 4F 40 40 
       00001F3D 40 40 4F 4F 4F 4F 4F 4F 4F 4F 
       00001F47 4F 4F 4F 4F 4F 2F 2E 20 20 20 
       00001F51 20 20 20 20 20 20 20 20 20 20 
       00001F5B 20 20 20 20 20 20 20 20 20 20 
       00001F65 20 20 20 20 20 20 20 20 20 20 
       00001F6F 20 20 20 20 20 20 20 20 20 20 
       00001F79 20 20 20 2C 4F 4F 4F 4F 4F 4F 
       00001F83 4F 4F 4F 4F 4F 4F 4F 4F 4F 4F 
       00001F8D 4F 40 40 40 40 4F 4F 4F 4F 4F 
       00001F97 4F 4F 4F 4F 4F 4F 4F 4F 4F 4F 
       00001FA1 4F 4F 4F 4F 4F 4F 4F 4F 4F 4F 
       00001FAB 4F 4F 4F 4F 40 40 40 40 4F 40 
       00001FB5 4F 40 40 40 40 
  2686 00001FBA 4F 4F 4F 4F 4F 4F 4F 4F 4F 4F   	DB	"OOOOOOOOOOOOOOOOOOOOOOOOOOOOOOOOOOOOOOOOOOOOOOOOOOOOOOOOOOOOOO/`                                                    ,OOOOOOOOOOOOOOOOOOOOOOOOOOOOOOOOOOOOOOOOOOOOOOOOOOO@@@@@@@"
       00001FC4 4F 4F 4F 4F 4F 4F 4F 4F 4F 4F 
       00001FCE 4F 4F 4F 4F 4F 4F 4F 4F 4F 4F 
       00001FD8 4F 4F 4F 4F 4F 4F 4F 4F 4F 4F 
       00001FE2 4F 4F 4F 4F 4F 4F 4F 4F 4F 4F 
       00001FEC 4F 4F 4F 4F 4F 4F 4F 4F 4F 4F 
       00001FF6 4F 4F 2F 60 20 20 20 20 20 20 
       00002000 20 20 20 20 20 20 20 20 20 20 
       0000200A 20 20 20 20 20 20 20 20 20 20 
       00002014 20 20 20 20 20 20 20 20 20 20 
       0000201E 20 20 20 20 20 20 20 20 20 20 
       00002028 20 20 20 20 20 20 2C 4F 4F 4F 
       00002032 4F 4F 4F 4F 4F 4F 4F 4F 4F 4F 
       0000203C 4F 4F 4F 4F 4F 4F 4F 4F 4F 4F 
       00002046 4F 4F 4F 4F 4F 4F 4F 4F 4F 4F 
       00002050 4F 4F 4F 4F 4F 4F 4F 4F 4F 4F 
       0000205A 4F 4F 4F 4F 4F 4F 4F 4F 40 40 
       00002064 40 40 40 40 40 
  2687 00002069 4F 4F 4F 4F 4F 4F 4F 4F 4F 4F   	DB	"OOOOOOOOOOOOOOOOOOOOOOOOOOOOOOOOOOOOOOOOOOOOOOOOOOOOOOOOOOOO/                                                         ,OOOOOOOOOOOOOOOOOOOOOOOOOOOOOOOOOOOOOOOOOOOOOOOO@@@@@@@@"
       00002073 4F 4F 4F 4F 4F 4F 4F 4F 4F 4F 
       0000207D 4F 4F 4F 4F 4F 4F 4F 4F 4F 4F 
       00002087 4F 4F 4F 4F 4F 4F 4F 4F 4F 4F 
       00002091 4F 4F 4F 4F 4F 4F 4F 4F 4F 4F 
       0000209B 4F 4F 4F 4F 4F 4F 4F 4F 4F 4F 
       000020A5 2F 20 20 20 20 20 20 20 20 20 
       000020AF 20 20 20 20 20 20 20 20 20 20 
       000020B9 20 20 20 20 20 20 20 20 20 20 
       000020C3 20 20 20 20 20 20 20 20 20 20 
       000020CD 20 20 20 20 20 20 20 20 20 20 
       000020D7 20 20 20 20 20 20 20 20 2C 4F 
       000020E1 4F 4F 4F 4F 4F 4F 4F 4F 4F 4F 
       000020EB 4F 4F 4F 4F 4F 4F 4F 4F 4F 4F 
       000020F5 4F 4F 4F 4F 4F 4F 4F 4F 4F 4F 
       000020FF 4F 4F 4F 4F 4F 4F 4F 4F 4F 4F 
       00002109 4F 4F 4F 4F 4F 4F 4F 40 40 40 
       00002113 40 40 40 40 40 
  2688 00002118 4F 4F 4F 4F 4F 4F 4F 4F 4F 4F   	DB	"OOOOOOOOOOOOOOOOOOOOOOOOOOOOOOOOOOOOOOOOOOOOOOOOOOOOOOOOOO`                                                             .OOOOOOOOOOOOOOOOOOOOOOOOOOOOOOOOOOOOOOOOOOOOOOOOOO@@@@"
       00002122 4F 4F 4F 4F 4F 4F 4F 4F 4F 4F 
       0000212C 4F 4F 4F 4F 4F 4F 4F 4F 4F 4F 
       00002136 4F 4F 4F 4F 4F 4F 4F 4F 4F 4F 
       00002140 4F 4F 4F 4F 4F 4F 4F 4F 4F 4F 
       0000214A 4F 4F 4F 4F 4F 4F 4F 4F 60 20 
       00002154 20 20 20 20 20 20 20 20 20 20 
       0000215E 20 20 20 20 20 20 20 20 20 20 
       00002168 20 20 20 20 20 20 20 20 20 20 
       00002172 20 20 20 20 20 20 20 20 20 20 
       0000217C 20 20 20 20 20 20 20 20 20 20 
       00002186 20 20 20 20 20 20 20 20 20 20 
       00002190 2E 4F 4F 4F 4F 4F 4F 4F 4F 4F 
       0000219A 4F 4F 4F 4F 4F 4F 4F 4F 4F 4F 
       000021A4 4F 4F 4F 4F 4F 4F 4F 4F 4F 4F 
       000021AE 4F 4F 4F 4F 4F 4F 4F 4F 4F 4F 
       000021B8 4F 4F 4F 4F 4F 4F 4F 4F 4F 4F 
       000021C2 4F 40 40 40 40 
  2689 000021C7 4F 4F 4F 4F 4F 4F 4F 4F 4F 4F   	DB	"OOOOOOOOOOOOOOOOOOOOOOOOOOOOOOOOOOOOOOOOOOOOOOOOOOOOOOOO/                                                                 .OOOOOOOOOOOOOOOOOOOOOOOOOOOOOOOOOOOOOOOOOOOOOOOO@@@@"
       000021D1 4F 4F 4F 4F 4F 4F 4F 4F 4F 4F 
       000021DB 4F 4F 4F 4F 4F 4F 4F 4F 4F 4F 
       000021E5 4F 4F 4F 4F 4F 4F 4F 4F 4F 4F 
       000021EF 4F 4F 4F 4F 4F 4F 4F 4F 4F 4F 
       000021F9 4F 4F 4F 4F 4F 4F 2F 20 20 20 
       00002203 20 20 20 20 20 20 20 20 20 20 
       0000220D 20 20 20 20 20 20 20 20 20 20 
       00002217 20 20 20 20 20 20 20 20 20 20 
       00002221 20 20 20 20 20 20 20 20 20 20 
       0000222B 20 20 20 20 20 20 20 20 20 20 
       00002235 20 20 20 20 20 20 20 20 20 20 
       0000223F 20 20 2E 4F 4F 4F 4F 4F 4F 4F 
       00002249 4F 4F 4F 4F 4F 4F 4F 4F 4F 4F 
       00002253 4F 4F 4F 4F 4F 4F 4F 4F 4F 4F 
       0000225D 4F 4F 4F 4F 4F 4F 4F 4F 4F 4F 
       00002267 4F 4F 4F 4F 4F 4F 4F 4F 4F 4F 
       00002271 4F 40 40 40 40 
  2690 00002276 4F 4F 4F 4F 4F 4F 4F 4F 4F 4F   	DB	"OOOOOOOOOOOOOOOOOOOOOOOOOOOOOOOOOOOOOOOOOOOOOOOOOOOOOO/.                                                                    ,OOOOOOOOOOOOOOOOOOOOOOOOOOOOOOOOOOOOOOOOOOOOOOOO@@"
       00002280 4F 4F 4F 4F 4F 4F 4F 4F 4F 4F 
       0000228A 4F 4F 4F 4F 4F 4F 4F 4F 4F 4F 
       00002294 4F 4F 4F 4F 4F 4F 4F 4F 4F 4F 
       0000229E 4F 4F 4F 4F 4F 4F 4F 4F 4F 4F 
       000022A8 4F 4F 4F 4F 2F 2E 20 20 20 20 
       000022B2 20 20 20 20 20 20 20 20 20 20 
       000022BC 20 20 20 20 20 20 20 20 20 20 
       000022C6 20 20 20 20 20 20 20 20 20 20 
       000022D0 20 20 20 20 20 20 20 20 20 20 
       000022DA 20 20 20 20 20 20 20 20 20 20 
       000022E4 20 20 20 20 20 20 20 20 20 20 
       000022EE 20 20 20 20 2C 4F 4F 4F 4F 4F 
       000022F8 4F 4F 4F 4F 4F 4F 4F 4F 4F 4F 
       00002302 4F 4F 4F 4F 4F 4F 4F 4F 4F 4F 
       0000230C 4F 4F 4F 4F 4F 4F 4F 4F 4F 4F 
       00002316 4F 4F 4F 4F 4F 4F 4F 4F 4F 4F 
       00002320 4F 4F 4F 40 40 
  2691 00002325 4F 4F 4F 4F 4F 4F 4F 4F 4F 4F   	DB	"OOOOOOOOOOOOOOOOOOOOOOOOOOOOOOOOOOOOOOOOOOOOOOOOOOOOO^                                                                        OOOOOOOOOOOOOOOOOOOOOOOOOOOOOOOOOOOOOOOOOOOOOO@@O"
       0000232F 4F 4F 4F 4F 4F 4F 4F 4F 4F 4F 
       00002339 4F 4F 4F 4F 4F 4F 4F 4F 4F 4F 
       00002343 4F 4F 4F 4F 4F 4F 4F 4F 4F 4F 
       0000234D 4F 4F 4F 4F 4F 4F 4F 4F 4F 4F 
       00002357 4F 4F 4F 5E 20 20 20 20 20 20 
       00002361 20 20 20 20 20 20 20 20 20 20 
       0000236B 20 20 20 20 20 20 20 20 20 20 
       00002375 20 20 20 20 20 20 20 20 20 20 
       0000237F 20 20 20 20 20 20 20 20 20 20 
       00002389 20 20 20 20 20 20 20 20 20 20 
       00002393 20 20 20 20 20 20 20 20 20 20 
       0000239D 20 20 20 20 20 20 4F 4F 4F 4F 
       000023A7 4F 4F 4F 4F 4F 4F 4F 4F 4F 4F 
       000023B1 4F 4F 4F 4F 4F 4F 4F 4F 4F 4F 
       000023BB 4F 4F 4F 4F 4F 4F 4F 4F 4F 4F 
       000023C5 4F 4F 4F 4F 4F 4F 4F 4F 4F 4F 
       000023CF 4F 4F 40 40 4F 
  2692 000023D4 4F 4F 4F 4F 4F 4F 4F 4F 4F 4F   	DB	"OOOOOOOOOOOOOOOOOOOOOOOOOOOOOOOOOOOOOOOOOOOOOOOOOOOO`                                                                          =OOOOOOOOOOOOOOOOOOOOOOOOOOOOOOOOOOOOOOOOOOOOOOO"
       000023DE 4F 4F 4F 4F 4F 4F 4F 4F 4F 4F 
       000023E8 4F 4F 4F 4F 4F 4F 4F 4F 4F 4F 
       000023F2 4F 4F 4F 4F 4F 4F 4F 4F 4F 4F 
       000023FC 4F 4F 4F 4F 4F 4F 4F 4F 4F 4F 
       00002406 4F 4F 60 20 20 20 20 20 20 20 
       00002410 20 20 20 20 20 20 20 20 20 20 
       0000241A 20 20 20 20 20 20 20 20 20 20 
       00002424 20 20 20 20 20 20 20 20 20 20 
       0000242E 20 20 20 20 20 20 20 20 20 20 
       00002438 20 20 20 20 20 20 20 20 20 20 
       00002442 20 20 20 20 20 20 20 20 20 20 
       0000244C 20 20 20 20 20 20 20 3D 4F 4F 
       00002456 4F 4F 4F 4F 4F 4F 4F 4F 4F 4F 
       00002460 4F 4F 4F 4F 4F 4F 4F 4F 4F 4F 
       0000246A 4F 4F 4F 4F 4F 4F 4F 4F 4F 4F 
       00002474 4F 4F 4F 4F 4F 4F 4F 4F 4F 4F 
       0000247E 4F 4F 4F 4F 4F 
  2693 00002483 4F 4F 4F 4F 4F 4F 4F 4F 4F 4F   	DB	"OOOOOOOOOOOOOOOOOOOOOOOOOOOOOOOOOOOOOOOOOOOOOOOOOOO.                                                                            ,OOOOOOOOOOOOOOOOOOOOOOOOOOOOOOOOOOOOOOOOOOOO@O"
       0000248D 4F 4F 4F 4F 4F 4F 4F 4F 4F 4F 
       00002497 4F 4F 4F 4F 4F 4F 4F 4F 4F 4F 
       000024A1 4F 4F 4F 4F 4F 4F 4F 4F 4F 4F 
       000024AB 4F 4F 4F 4F 4F 4F 4F 4F 4F 4F 
       000024B5 4F 2E 20 20 20 20 20 20 20 20 
       000024BF 20 20 20 20 20 20 20 20 20 20 
       000024C9 20 20 20 20 20 20 20 20 20 20 
       000024D3 20 20 20 20 20 20 20 20 20 20 
       000024DD 20 20 20 20 20 20 20 20 20 20 
       000024E7 20 20 20 20 20 20 20 20 20 20 
       000024F1 20 20 20 20 20 20 20 20 20 20 
       000024FB 20 20 20 20 20 20 20 20 2C 4F 
       00002505 4F 4F 4F 4F 4F 4F 4F 4F 4F 4F 
       0000250F 4F 4F 4F 4F 4F 4F 4F 4F 4F 4F 
       00002519 4F 4F 4F 4F 4F 4F 4F 4F 4F 4F 
       00002523 4F 4F 4F 4F 4F 4F 4F 4F 4F 4F 
       0000252D 4F 4F 4F 40 4F 
  2694 00002532 4F 4F 4F 4F 4F 4F 4F 4F 4F 4F   	DB	"OOOOOOOOOOOOOOOOOOOOOOOOOOOOOOOOOOOOOOOOOOOOOOOOOO.                      .                                ..                     ,OOOOOOOOOOOOOOOOOOOOOOOOOOOOOOOOOOOOOOOOOOOOO"
       0000253C 4F 4F 4F 4F 4F 4F 4F 4F 4F 4F 
       00002546 4F 4F 4F 4F 4F 4F 4F 4F 4F 4F 
       00002550 4F 4F 4F 4F 4F 4F 4F 4F 4F 4F 
       0000255A 4F 4F 4F 4F 4F 4F 4F 4F 4F 4F 
       00002564 2E 20 20 20 20 20 20 20 20 20 
       0000256E 20 20 20 20 20 20 20 20 20 20 
       00002578 20 20 20 2E 20 20 20 20 20 20 
       00002582 20 20 20 20 20 20 20 20 20 20 
       0000258C 20 20 20 20 20 20 20 20 20 20 
       00002596 20 20 20 20 20 20 2E 2E 20 20 
       000025A0 20 20 20 20 20 20 20 20 20 20 
       000025AA 20 20 20 20 20 20 20 20 20 2C 
       000025B4 4F 4F 4F 4F 4F 4F 4F 4F 4F 4F 
       000025BE 4F 4F 4F 4F 4F 4F 4F 4F 4F 4F 
       000025C8 4F 4F 4F 4F 4F 4F 4F 4F 4F 4F 
       000025D2 4F 4F 4F 4F 4F 4F 4F 4F 4F 4F 
       000025DC 4F 4F 4F 4F 4F 
  2695 000025E1 4F 4F 4F 4F 4F 4F 4F 4F 4F 4F   	DB	"OOOOOOOOOOOOOOOOOOOOOOOOOOOOOOOOOOOOOOOOOOOOOOOO[                           .                          .                           OOOOOOOOOOOOOOOOOOOOOOOOOOOOOOOOOOOOOOOOOOOO"
       000025EB 4F 4F 4F 4F 4F 4F 4F 4F 4F 4F 
       000025F5 4F 4F 4F 4F 4F 4F 4F 4F 4F 4F 
       000025FF 4F 4F 4F 4F 4F 4F 4F 4F 4F 4F 
       00002609 4F 4F 4F 4F 4F 4F 4F 4F 5B 20 
       00002613 20 20 20 20 20 20 20 20 20 20 
       0000261D 20 20 20 20 20 20 20 20 20 20 
       00002627 20 20 20 20 20 20 2E 20 20 20 
       00002631 20 20 20 20 20 20 20 20 20 20 
       0000263B 20 20 20 20 20 20 20 20 20 20 
       00002645 20 20 20 2E 20 20 20 20 20 20 
       0000264F 20 20 20 20 20 20 20 20 20 20 
       00002659 20 20 20 20 20 20 20 20 20 20 
       00002663 20 4F 4F 4F 4F 4F 4F 4F 4F 4F 
       0000266D 4F 4F 4F 4F 4F 4F 4F 4F 4F 4F 
       00002677 4F 4F 4F 4F 4F 4F 4F 4F 4F 4F 
       00002681 4F 4F 4F 4F 4F 4F 4F 4F 4F 4F 
       0000268B 4F 4F 4F 4F 4F 
  2696 00002690 4F 4F 4F 4F 4F 4F 4F 4F 4F 4F   	DB	"OOOOOOOOOOOOOOOOOOOOOOOOOOOOOOOOOOOOOOOOOOOOO/                                ..                    ..                                OOOOOOOOOOOOOOOOOOOOOOOOOOOOOOOOOOOOOOOOO"
       0000269A 4F 4F 4F 4F 4F 4F 4F 4F 4F 4F 
       000026A4 4F 4F 4F 4F 4F 4F 4F 4F 4F 4F 
       000026AE 4F 4F 4F 4F 4F 4F 4F 4F 4F 4F 
       000026B8 4F 4F 4F 4F 4F 2F 20 20 20 20 
       000026C2 20 20 20 20 20 20 20 20 20 20 
       000026CC 20 20 20 20 20 20 20 20 20 20 
       000026D6 20 20 20 20 20 20 20 20 2E 2E 
       000026E0 20 20 20 20 20 20 20 20 20 20 
       000026EA 20 20 20 20 20 20 20 20 20 20 
       000026F4 2E 2E 20 20 20 20 20 20 20 20 
       000026FE 20 20 20 20 20 20 20 20 20 20 
       00002708 20 20 20 20 20 20 20 20 20 20 
       00002712 20 20 20 20 4F 4F 4F 4F 4F 4F 
       0000271C 4F 4F 4F 4F 4F 4F 4F 4F 4F 4F 
       00002726 4F 4F 4F 4F 4F 4F 4F 4F 4F 4F 
       00002730 4F 4F 4F 4F 4F 4F 4F 4F 4F 4F 
       0000273A 4F 4F 4F 4F 4F 
  2697 0000273F 4F 4F 4F 4F 4F 4F 4F 4F 4F 4F   	DB	"OOOOOOOOOOOOOOOOOOOOOOOOOOOOOOOOOOOOOOOOOOO/                                    ..                ..                                    OOOOOOOOOOOOOOOOOOOOOOOOOOOOOOOOOOOOOOO"
       00002749 4F 4F 4F 4F 4F 4F 4F 4F 4F 4F 
       00002753 4F 4F 4F 4F 4F 4F 4F 4F 4F 4F 
       0000275D 4F 4F 4F 4F 4F 4F 4F 4F 4F 4F 
       00002767 4F 4F 4F 2F 20 20 20 20 20 20 
       00002771 20 20 20 20 20 20 20 20 20 20 
       0000277B 20 20 20 20 20 20 20 20 20 20 
       00002785 20 20 20 20 20 20 20 20 20 20 
       0000278F 2E 2E 20 20 20 20 20 20 20 20 
       00002799 20 20 20 20 20 20 20 20 2E 2E 
       000027A3 20 20 20 20 20 20 20 20 20 20 
       000027AD 20 20 20 20 20 20 20 20 20 20 
       000027B7 20 20 20 20 20 20 20 20 20 20 
       000027C1 20 20 20 20 20 20 4F 4F 4F 4F 
       000027CB 4F 4F 4F 4F 4F 4F 4F 4F 4F 4F 
       000027D5 4F 4F 4F 4F 4F 4F 4F 4F 4F 4F 
       000027DF 4F 4F 4F 4F 4F 4F 4F 4F 4F 4F 
       000027E9 4F 4F 4F 4F 4F 
  2698 000027EE 4F 4F 4F 4F 4F 4F 4F 4F 4F 4F   	DB	"OOOOOOOOOOOOOOOOOOOOOOOOOOOOOOOOOOOOOOOOOO                                        .             ..                        .]]]           ,OOOOOOOOOOOOOOOOOOOOOOOOOOOOOOOOOOOOO"
       000027F8 4F 4F 4F 4F 4F 4F 4F 4F 4F 4F 
       00002802 4F 4F 4F 4F 4F 4F 4F 4F 4F 4F 
       0000280C 4F 4F 4F 4F 4F 4F 4F 4F 4F 4F 
       00002816 4F 4F 20 20 20 20 20 20 20 20 
       00002820 20 20 20 20 20 20 20 20 20 20 
       0000282A 20 20 20 20 20 20 20 20 20 20 
       00002834 20 20 20 20 20 20 20 20 20 20 
       0000283E 20 20 2E 20 20 20 20 20 20 20 
       00002848 20 20 20 20 20 20 2E 2E 20 20 
       00002852 20 20 20 20 20 20 20 20 20 20 
       0000285C 20 20 20 20 20 20 20 20 20 20 
       00002866 20 20 2E 5D 5D 5D 20 20 20 20 
       00002870 20 20 20 20 20 20 20 2C 4F 4F 
       0000287A 4F 4F 4F 4F 4F 4F 4F 4F 4F 4F 
       00002884 4F 4F 4F 4F 4F 4F 4F 4F 4F 4F 
       0000288E 4F 4F 4F 4F 4F 4F 4F 4F 4F 4F 
       00002898 4F 4F 4F 4F 4F 
  2699 0000289D 4F 4F 4F 4F 4F 4F 4F 4F 4F 4F   	DB	"OOOOOOOOOOOOOOOOOOOOOOOOOOOOOOOOOOOOOOOO/              ,/@@@@@@@@@@]               ..          ..                  ,]@@@@@@@@@@           OOOOOOOOOOOOOOOOOOOOOOOOOOOOOOOOOOOOO"
       000028A7 4F 4F 4F 4F 4F 4F 4F 4F 4F 4F 
       000028B1 4F 4F 4F 4F 4F 4F 4F 4F 4F 4F 
       000028BB 4F 4F 4F 4F 4F 4F 4F 4F 4F 4F 
       000028C5 2F 20 20 20 20 20 20 20 20 20 
       000028CF 20 20 20 20 20 2C 2F 40 40 40 
       000028D9 40 40 40 40 40 40 40 5D 20 20 
       000028E3 20 20 20 20 20 20 20 20 20 20 
       000028ED 20 20 20 2E 2E 20 20 20 20 20 
       000028F7 20 20 20 20 20 2E 2E 20 20 20 
       00002901 20 20 20 20 20 20 20 20 20 20 
       0000290B 20 20 20 20 20 2C 5D 40 40 40 
       00002915 40 40 40 40 40 40 40 20 20 20 
       0000291F 20 20 20 20 20 20 20 20 4F 4F 
       00002929 4F 4F 4F 4F 4F 4F 4F 4F 4F 4F 
       00002933 4F 4F 4F 4F 4F 4F 4F 4F 4F 4F 
       0000293D 4F 4F 4F 4F 4F 4F 4F 4F 4F 4F 
       00002947 4F 4F 4F 4F 4F 
  2700 0000294C 4F 4F 4F 4F 4F 4F 4F 4F 4F 4F   	DB	"OOOOOOOOOOOOOOOOOOOOOOOOOOOOOOOOOOOOOOO^            ,@@@@@@@@@@@@@OO@@             ...      ...               ,@@@@@@@@@@@@@@@`            OOOOOOOOOOOOOOOOOOOOOOOOOOOOOOOOOOOO"
       00002956 4F 4F 4F 4F 4F 4F 4F 4F 4F 4F 
       00002960 4F 4F 4F 4F 4F 4F 4F 4F 4F 4F 
       0000296A 4F 4F 4F 4F 4F 4F 4F 4F 4F 5E 
       00002974 20 20 20 20 20 20 20 20 20 20 
       0000297E 20 20 2C 40 40 40 40 40 40 40 
       00002988 40 40 40 40 40 40 4F 4F 40 40 
       00002992 20 20 20 20 20 20 20 20 20 20 
       0000299C 20 20 20 2E 2E 2E 20 20 20 20 
       000029A6 20 20 2E 2E 2E 20 20 20 20 20 
       000029B0 20 20 20 20 20 20 20 20 20 20 
       000029BA 2C 40 40 40 40 40 40 40 40 40 
       000029C4 40 40 40 40 40 40 60 20 20 20 
       000029CE 20 20 20 20 20 20 20 20 20 4F 
       000029D8 4F 4F 4F 4F 4F 4F 4F 4F 4F 4F 
       000029E2 4F 4F 4F 4F 4F 4F 4F 4F 4F 4F 
       000029EC 4F 4F 4F 4F 4F 4F 4F 4F 4F 4F 
       000029F6 4F 4F 4F 4F 4F 
  2701 000029FB 4F 4F 4F 4F 4F 4F 4F 4F 4F 4F   	DB	"OOOOOOOOOOOOOOOOOOOOOOOOOOOOOOOOOOOOOO/           ,@@@@@@@@@OOOOO`    ,O           ..     ...             ]@@@@@@@@@@@@[[.                 OOOOOOOOOOOOOOOOOOOOOOOOOOOOOOOOOOOO"
       00002A05 4F 4F 4F 4F 4F 4F 4F 4F 4F 4F 
       00002A0F 4F 4F 4F 4F 4F 4F 4F 4F 4F 4F 
       00002A19 4F 4F 4F 4F 4F 4F 4F 4F 2F 20 
       00002A23 20 20 20 20 20 20 20 20 20 20 
       00002A2D 2C 40 40 40 40 40 40 40 40 40 
       00002A37 4F 4F 4F 4F 4F 60 20 20 20 20 
       00002A41 2C 4F 20 20 20 20 20 20 20 20 
       00002A4B 20 20 20 2E 2E 20 20 20 20 20 
       00002A55 2E 2E 2E 20 20 20 20 20 20 20 
       00002A5F 20 20 20 20 20 20 5D 40 40 40 
       00002A69 40 40 40 40 40 40 40 40 40 5B 
       00002A73 5B 2E 20 20 20 20 20 20 20 20 
       00002A7D 20 20 20 20 20 20 20 20 20 4F 
       00002A87 4F 4F 4F 4F 4F 4F 4F 4F 4F 4F 
       00002A91 4F 4F 4F 4F 4F 4F 4F 4F 4F 4F 
       00002A9B 4F 4F 4F 4F 4F 4F 4F 4F 4F 4F 
       00002AA5 4F 4F 4F 4F 4F 
  2702 00002AAA 4F 4F 4F 4F 4F 4F 4F 4F 4F 4F   	DB	"OOOOOOOOOOOOOOOOOOOOOOOOOOOOOOOOOOOOOO           =@@@@@@OOO@@@@@        O@`           ..   ...           ,@@@@@@@@@/`                        .OOOOOOOOOOOOOOOOOOOOOOOOOOOOOOOOO"
       00002AB4 4F 4F 4F 4F 4F 4F 4F 4F 4F 4F 
       00002ABE 4F 4F 4F 4F 4F 4F 4F 4F 4F 4F 
       00002AC8 4F 4F 4F 4F 4F 4F 4F 4F 20 20 
       00002AD2 20 20 20 20 20 20 20 20 20 3D 
       00002ADC 40 40 40 40 40 40 4F 4F 4F 40 
       00002AE6 40 40 40 40 20 20 20 20 20 20 
       00002AF0 20 20 4F 40 60 20 20 20 20 20 
       00002AFA 20 20 20 20 20 20 2E 2E 20 20 
       00002B04 20 2E 2E 2E 20 20 20 20 20 20 
       00002B0E 20 20 20 20 20 2C 40 40 40 40 
       00002B18 40 40 40 40 40 2F 60 20 20 20 
       00002B22 20 20 20 20 20 20 20 20 20 20 
       00002B2C 20 20 20 20 20 20 20 20 20 20 
       00002B36 20 2E 4F 4F 4F 4F 4F 4F 4F 4F 
       00002B40 4F 4F 4F 4F 4F 4F 4F 4F 4F 4F 
       00002B4A 4F 4F 4F 4F 4F 4F 4F 4F 4F 4F 
       00002B54 4F 4F 4F 4F 4F 
  2703 00002B59 4F 4F 4F 4F 4F 4F 4F 4F 4F 4F   	DB	"OOOOOOOOOOOOOOOOOOOOOOOOOOOOOOOOOOOOO^          =@@@@@OO@@@@@@@@        O@@           ...  ...         ,@@@@@@@@[                             =OOOOOOOOOOOOOOOOOOOOOOOOOOOOOOOO"
       00002B63 4F 4F 4F 4F 4F 4F 4F 4F 4F 4F 
       00002B6D 4F 4F 4F 4F 4F 4F 4F 4F 4F 4F 
       00002B77 4F 4F 4F 4F 4F 4F 4F 5E 20 20 
       00002B81 20 20 20 20 20 20 20 20 3D 40 
       00002B8B 40 40 40 40 4F 4F 40 40 40 40 
       00002B95 40 40 40 40 20 20 20 20 20 20 
       00002B9F 20 20 4F 40 40 20 20 20 20 20 
       00002BA9 20 20 20 20 20 20 2E 2E 2E 20 
       00002BB3 20 2E 2E 2E 20 20 20 20 20 20 
       00002BBD 20 20 20 2C 40 40 40 40 40 40 
       00002BC7 40 40 5B 20 20 20 20 20 20 20 
       00002BD1 20 20 20 20 20 20 20 20 20 20 
       00002BDB 20 20 20 20 20 20 20 20 20 20 
       00002BE5 20 20 3D 4F 4F 4F 4F 4F 4F 4F 
       00002BEF 4F 4F 4F 4F 4F 4F 4F 4F 4F 4F 
       00002BF9 4F 4F 4F 4F 4F 4F 4F 4F 4F 4F 
       00002C03 4F 4F 4F 4F 4F 
  2704 00002C08 4F 4F 4F 4F 4F 4F 4F 4F 4F 4F   	DB	"OOOOOOOOOOOOOOOOOOOOOOOOOOOOOOOOOOOOO^          @@@@@@O@@@@@@@@@@`    .OO@@^          ........        @@@@@@@@]]                              =OOOOOOOOOOOOOOOOOOOOOOOOOOOOOOOO"
       00002C12 4F 4F 4F 4F 4F 4F 4F 4F 4F 4F 
       00002C1C 4F 4F 4F 4F 4F 4F 4F 4F 4F 4F 
       00002C26 4F 4F 4F 4F 4F 4F 4F 5E 20 20 
       00002C30 20 20 20 20 20 20 20 20 40 40 
       00002C3A 40 40 40 40 4F 40 40 40 40 40 
       00002C44 40 40 40 40 40 60 20 20 20 20 
       00002C4E 2E 4F 4F 40 40 5E 20 20 20 20 
       00002C58 20 20 20 20 20 20 2E 2E 2E 2E 
       00002C62 2E 2E 2E 2E 20 20 20 20 20 20 
       00002C6C 20 20 40 40 40 40 40 40 40 40 
       00002C76 5D 5D 20 20 20 20 20 20 20 20 
       00002C80 20 20 20 20 20 20 20 20 20 20 
       00002C8A 20 20 20 20 20 20 20 20 20 20 
       00002C94 20 20 3D 4F 4F 4F 4F 4F 4F 4F 
       00002C9E 4F 4F 4F 4F 4F 4F 4F 4F 4F 4F 
       00002CA8 4F 4F 4F 4F 4F 4F 4F 4F 4F 4F 
       00002CB2 4F 4F 4F 4F 4F 
  2705 00002CB7 4F 4F 4F 4F 4F 4F 4F 4F 4F 4F   	DB	"OOOOOOOOOOOOOOOOOOOOOOOOOOOOOOOOOOOOO.          @@@@@OO@@@@@@@@@@@@@@OOO@@@@           ......        @@@@@@@@@@@@@@@@@]`                      ,OOOOOOOOOOOOOOOOOOOOOOOOOOOOOOOO"
       00002CC1 4F 4F 4F 4F 4F 4F 4F 4F 4F 4F 
       00002CCB 4F 4F 4F 4F 4F 4F 4F 4F 4F 4F 
       00002CD5 4F 4F 4F 4F 4F 4F 4F 2E 20 20 
       00002CDF 20 20 20 20 20 20 20 20 40 40 
       00002CE9 40 40 40 4F 4F 40 40 40 40 40 
       00002CF3 40 40 40 40 40 40 40 40 40 4F 
       00002CFD 4F 4F 40 40 40 40 20 20 20 20 
       00002D07 20 20 20 20 20 20 20 2E 2E 2E 
       00002D11 2E 2E 2E 20 20 20 20 20 20 20 
       00002D1B 20 40 40 40 40 40 40 40 40 40 
       00002D25 40 40 40 40 40 40 40 40 5D 60 
       00002D2F 20 20 20 20 20 20 20 20 20 20 
       00002D39 20 20 20 20 20 20 20 20 20 20 
       00002D43 20 20 2C 4F 4F 4F 4F 4F 4F 4F 
       00002D4D 4F 4F 4F 4F 4F 4F 4F 4F 4F 4F 
       00002D57 4F 4F 4F 4F 4F 4F 4F 4F 4F 4F 
       00002D61 4F 4F 4F 4F 4F 
  2706 00002D66 4F 4F 4F 4F 4F 4F 4F 4F 4F 4F   	DB	"OOOOOOOOOOOOOOOOOOOOOOOOOOOOOOOOOOOOO.          @@@@@OO@@@@@@@@@@@@@@OO@@@@O           ......        ,@@@@@@@@@@@@@@@@@@@@@]                  ,OOOOOOOOOOOOOOOOOOOOOOOOOOOOOOOO"
       00002D70 4F 4F 4F 4F 4F 4F 4F 4F 4F 4F 
       00002D7A 4F 4F 4F 4F 4F 4F 4F 4F 4F 4F 
       00002D84 4F 4F 4F 4F 4F 4F 4F 2E 20 20 
       00002D8E 20 20 20 20 20 20 20 20 40 40 
       00002D98 40 40 40 4F 4F 40 40 40 40 40 
       00002DA2 40 40 40 40 40 40 40 40 40 4F 
       00002DAC 4F 40 40 40 40 4F 20 20 20 20 
       00002DB6 20 20 20 20 20 20 20 2E 2E 2E 
       00002DC0 2E 2E 2E 20 20 20 20 20 20 20 
       00002DCA 20 2C 40 40 40 40 40 40 40 40 
       00002DD4 40 40 40 40 40 40 40 40 40 40 
       00002DDE 40 40 40 5D 20 20 20 20 20 20 
       00002DE8 20 20 20 20 20 20 20 20 20 20 
       00002DF2 20 20 2C 4F 4F 4F 4F 4F 4F 4F 
       00002DFC 4F 4F 4F 4F 4F 4F 4F 4F 4F 4F 
       00002E06 4F 4F 4F 4F 4F 4F 4F 4F 4F 4F 
       00002E10 4F 4F 4F 4F 4F 
  2707 00002E15 4F 4F 4F 4F 4F 4F 4F 4F 4F 4F   	DB	"OOOOOOOOOOOOOOOOOOOOOOOOOOOOOOOOOOOOo^          @@@@Oo/  ,@@@@@@@@@@OOO@@@@^          ........          .. ..,[[[@@@@@@@@@@@@@`              =OOOOOOOOOOOOOOOOOOOOOOOOOOOOOOOOO"
       00002E1F 4F 4F 4F 4F 4F 4F 4F 4F 4F 4F 
       00002E29 4F 4F 4F 4F 4F 4F 4F 4F 4F 4F 
       00002E33 4F 4F 4F 4F 4F 4F 6F 5E 20 20 
       00002E3D 20 20 20 20 20 20 20 20 40 40 
       00002E47 40 40 4F 6F 2F 20 20 2C 40 40 
       00002E51 40 40 40 40 40 40 40 40 4F 4F 
       00002E5B 4F 40 40 40 40 5E 20 20 20 20 
       00002E65 20 20 20 20 20 20 2E 2E 2E 2E 
       00002E6F 2E 2E 2E 2E 20 20 20 20 20 20 
       00002E79 20 20 20 20 2E 2E 20 2E 2E 2C 
       00002E83 5B 5B 5B 40 40 40 40 40 40 40 
       00002E8D 40 40 40 40 40 40 60 20 20 20 
       00002E97 20 20 20 20 20 20 20 20 20 20 
       00002EA1 20 3D 4F 4F 4F 4F 4F 4F 4F 4F 
       00002EAB 4F 4F 4F 4F 4F 4F 4F 4F 4F 4F 
       00002EB5 4F 4F 4F 4F 4F 4F 4F 4F 4F 4F 
       00002EBF 4F 4F 4F 4F 4F 
  2708 00002EC4 4F 6F 4F 4F 4F 4F 4F 4F 4F 6F   	DB	"OoOOOOOOOoooooooooooooooOOOOOOOOOOOoO^          ,@@@@O^   O@@@@@@@@OO@@@@@@           ........                        [@@@@@@@@@            OOOOOOOOOOOOOOOOOOOOOOOOOOOOOOOOOOO"
       00002ECE 6F 6F 6F 6F 6F 6F 6F 6F 6F 6F 
       00002ED8 6F 6F 6F 6F 4F 4F 4F 4F 4F 4F 
       00002EE2 4F 4F 4F 4F 4F 6F 4F 5E 20 20 
       00002EEC 20 20 20 20 20 20 20 20 2C 40 
       00002EF6 40 40 40 4F 5E 20 20 20 4F 40 
       00002F00 40 40 40 40 40 40 40 4F 4F 40 
       00002F0A 40 40 40 40 40 20 20 20 20 20 
       00002F14 20 20 20 20 20 20 2E 2E 2E 2E 
       00002F1E 2E 2E 2E 2E 20 20 20 20 20 20 
       00002F28 20 20 20 20 20 20 20 20 20 20 
       00002F32 20 20 20 20 20 20 20 20 5B 40 
       00002F3C 40 40 40 40 40 40 40 40 20 20 
       00002F46 20 20 20 20 20 20 20 20 20 20 
       00002F50 4F 4F 4F 4F 4F 4F 4F 4F 4F 4F 
       00002F5A 4F 4F 4F 4F 4F 4F 4F 4F 4F 4F 
       00002F64 4F 4F 4F 4F 4F 4F 4F 4F 4F 4F 
       00002F6E 4F 4F 4F 4F 4F 
  2709 00002F73 4F 6F 6F 4F 6F 6F 6F 6F 6F 6F   	DB	"OooOoooooooooooooooooooooooooOOOOOOOoO.          ,@@@@OO/OOO@@@OOOOO@@@@@/           ..........                           ,@@@@@@@         ,OOOOOOOOOOOOOOOOOOOOOOOOOOOOOOOOOOO"
       00002F7D 6F 6F 6F 6F 6F 6F 6F 6F 6F 6F 
       00002F87 6F 6F 6F 6F 6F 6F 6F 6F 6F 4F 
       00002F91 4F 4F 4F 4F 4F 4F 6F 4F 2E 20 
       00002F9B 20 20 20 20 20 20 20 20 20 2C 
       00002FA5 40 40 40 40 4F 4F 2F 4F 4F 4F 
       00002FAF 40 40 40 4F 4F 4F 4F 4F 40 40 
       00002FB9 40 40 40 2F 20 20 20 20 20 20 
       00002FC3 20 20 20 20 20 2E 2E 2E 2E 2E 
       00002FCD 2E 2E 2E 2E 2E 20 20 20 20 20 
       00002FD7 20 20 20 20 20 20 20 20 20 20 
       00002FE1 20 20 20 20 20 20 20 20 20 20 
       00002FEB 20 20 2C 40 40 40 40 40 40 40 
       00002FF5 20 20 20 20 20 20 20 20 20 2C 
       00002FFF 4F 4F 4F 4F 4F 4F 4F 4F 4F 4F 
       00003009 4F 4F 4F 4F 4F 4F 4F 4F 4F 4F 
       00003013 4F 4F 4F 4F 4F 4F 4F 4F 4F 4F 
       0000301D 4F 4F 4F 4F 4F 
  2710 00003022 4F 6F 6F 6F 6F 6F 6F 6F 6F 6F   	DB	"OoooooooooooooooooooOOOOooooooooooOOooO            @@@@@@@@@@O@@@@@@@@@`            ..........                              ,@@@@`          OOOOOOOOOOOOOOOOOOOOOOOOOOOOOOOOOOO"
       0000302C 6F 6F 6F 6F 6F 6F 6F 6F 6F 6F 
       00003036 4F 4F 4F 4F 6F 6F 6F 6F 6F 6F 
       00003040 6F 6F 6F 6F 4F 4F 6F 6F 4F 20 
       0000304A 20 20 20 20 20 20 20 20 20 20 
       00003054 20 40 40 40 40 40 40 40 40 40 
       0000305E 40 4F 40 40 40 40 40 40 40 40 
       00003068 40 60 20 20 20 20 20 20 20 20 
       00003072 20 20 20 20 2E 2E 2E 2E 2E 2E 
       0000307C 2E 2E 2E 2E 20 20 20 20 20 20 
       00003086 20 20 20 20 20 20 20 20 20 20 
       00003090 20 20 20 20 20 20 20 20 20 20 
       0000309A 20 20 20 20 2C 40 40 40 40 60 
       000030A4 20 20 20 20 20 20 20 20 20 20 
       000030AE 4F 4F 4F 4F 4F 4F 4F 4F 4F 4F 
       000030B8 4F 4F 4F 4F 4F 4F 4F 4F 4F 4F 
       000030C2 4F 4F 4F 4F 4F 4F 4F 4F 4F 4F 
       000030CC 4F 4F 4F 4F 4F 
  2711 000030D1 4F 6F 6F 6F 6F 6F 6F 6F 6F 6F   	DB	"OooooooooooooooooooooooooooooooooooOOoO             @@@@@@@@@@@@@@@@`             ............                                            /OOOOOOOOOOOOOOOOOOOOOOOOOOOOOOOOOOOO"
       000030DB 6F 6F 6F 6F 6F 6F 6F 6F 6F 6F 
       000030E5 6F 6F 6F 6F 6F 6F 6F 6F 6F 6F 
       000030EF 6F 6F 6F 6F 6F 4F 4F 6F 4F 20 
       000030F9 20 20 20 20 20 20 20 20 20 20 
       00003103 20 20 40 40 40 40 40 40 40 40 
       0000310D 40 40 40 40 40 40 40 40 60 20 
       00003117 20 20 20 20 20 20 20 20 20 20 
       00003121 20 20 2E 2E 2E 2E 2E 2E 2E 2E 
       0000312B 2E 2E 2E 2E 20 20 20 20 20 20 
       00003135 20 20 20 20 20 20 20 20 20 20 
       0000313F 20 20 20 20 20 20 20 20 20 20 
       00003149 20 20 20 20 20 20 20 20 20 20 
       00003153 20 20 20 20 20 20 20 20 2F 4F 
       0000315D 4F 4F 4F 4F 4F 4F 4F 4F 4F 4F 
       00003167 4F 4F 4F 4F 4F 4F 4F 4F 4F 4F 
       00003171 4F 4F 4F 4F 4F 4F 4F 4F 4F 4F 
       0000317B 4F 4F 4F 4F 4F 
  2712 00003180 4F 6F 6F 6F 6F 6F 6F 6F 6F 6F   	DB	"OoooooooooooooooooooooooooooooooooooooooO               ,[@@@@@@@O[                ..............                                         ,OOOOOOOOOOOOOOOOOOOOOOOOOOOOOOOOOOOO"
       0000318A 6F 6F 6F 6F 6F 6F 6F 6F 6F 6F 
       00003194 6F 6F 6F 6F 6F 6F 6F 6F 6F 6F 
       0000319E 6F 6F 6F 6F 6F 6F 6F 6F 6F 6F 
       000031A8 4F 20 20 20 20 20 20 20 20 20 
       000031B2 20 20 20 20 20 20 2C 5B 40 40 
       000031BC 40 40 40 40 40 4F 5B 20 20 20 
       000031C6 20 20 20 20 20 20 20 20 20 20 
       000031D0 20 20 20 2E 2E 2E 2E 2E 2E 2E 
       000031DA 2E 2E 2E 2E 2E 2E 2E 20 20 20 
       000031E4 20 20 20 20 20 20 20 20 20 20 
       000031EE 20 20 20 20 20 20 20 20 20 20 
       000031F8 20 20 20 20 20 20 20 20 20 20 
       00003202 20 20 20 20 20 20 20 20 2C 4F 
       0000320C 4F 4F 4F 4F 4F 4F 4F 4F 4F 4F 
       00003216 4F 4F 4F 4F 4F 4F 4F 4F 4F 4F 
       00003220 4F 4F 4F 4F 4F 4F 4F 4F 4F 4F 
       0000322A 4F 4F 4F 4F 4F 
  2713 0000322F 4F 6F 6F 6F 6F 6F 6F 6F 6F 6F   	DB	"OoooooooooooooooooooooooooooooooooooooooOO`                                      ..................                                      ,OOOOOOOOOOOOOOOOOOOOOOOOOOOOOOOOOOOOO"
       00003239 6F 6F 6F 6F 6F 6F 6F 6F 6F 6F 
       00003243 6F 6F 6F 6F 6F 6F 6F 6F 6F 6F 
       0000324D 6F 6F 6F 6F 6F 6F 6F 6F 6F 6F 
       00003257 4F 4F 60 20 20 20 20 20 20 20 
       00003261 20 20 20 20 20 20 20 20 20 20 
       0000326B 20 20 20 20 20 20 20 20 20 20 
       00003275 20 20 20 20 20 20 20 20 20 20 
       0000327F 20 2E 2E 2E 2E 2E 2E 2E 2E 2E 
       00003289 2E 2E 2E 2E 2E 2E 2E 2E 2E 20 
       00003293 20 20 20 20 20 20 20 20 20 20 
       0000329D 20 20 20 20 20 20 20 20 20 20 
       000032A7 20 20 20 20 20 20 20 20 20 20 
       000032B1 20 20 20 20 20 20 20 2C 4F 4F 
       000032BB 4F 4F 4F 4F 4F 4F 4F 4F 4F 4F 
       000032C5 4F 4F 4F 4F 4F 4F 4F 4F 4F 4F 
       000032CF 4F 4F 4F 4F 4F 4F 4F 4F 4F 4F 
       000032D9 4F 4F 4F 4F 4F 
  2714 000032DE 4F 6F 6F 6F 6F 6F 6F 6F 6F 6F   	DB	"OoooooooooooooooooooooooooooooooooooooooOOOO`                                  ......................                                  ,OOOOOOOOOOOOOOOOOOOOOOOOOOOOOOOOOOOOOOO"
       000032E8 6F 6F 6F 6F 6F 6F 6F 6F 6F 6F 
       000032F2 6F 6F 6F 6F 6F 6F 6F 6F 6F 6F 
       000032FC 6F 6F 6F 6F 6F 6F 6F 6F 6F 6F 
       00003306 4F 4F 4F 4F 60 20 20 20 20 20 
       00003310 20 20 20 20 20 20 20 20 20 20 
       0000331A 20 20 20 20 20 20 20 20 20 20 
       00003324 20 20 20 20 20 20 20 20 20 2E 
       0000332E 2E 2E 2E 2E 2E 2E 2E 2E 2E 2E 
       00003338 2E 2E 2E 2E 2E 2E 2E 2E 2E 2E 
       00003342 2E 20 20 20 20 20 20 20 20 20 
       0000334C 20 20 20 20 20 20 20 20 20 20 
       00003356 20 20 20 20 20 20 20 20 20 20 
       00003360 20 20 20 20 20 2C 4F 4F 4F 4F 
       0000336A 4F 4F 4F 4F 4F 4F 4F 4F 4F 4F 
       00003374 4F 4F 4F 4F 4F 4F 4F 4F 4F 4F 
       0000337E 4F 4F 4F 4F 4F 4F 4F 4F 4F 4F 
       00003388 4F 4F 4F 4F 4F 
  2715 0000338D 4F 6F 6F 6F 6F 6F 6F 6F 6F 6F   	DB	"OoooooooooooooooooooooooooooooooooooooooOOOOO^.                              ..........................                              ,OOOOOOOOOOOOOOOOOOOOOOOOOOOOOOOOOOOOOOOOO"
       00003397 6F 6F 6F 6F 6F 6F 6F 6F 6F 6F 
       000033A1 6F 6F 6F 6F 6F 6F 6F 6F 6F 6F 
       000033AB 6F 6F 6F 6F 6F 6F 6F 6F 6F 6F 
       000033B5 4F 4F 4F 4F 4F 5E 2E 20 20 20 
       000033BF 20 20 20 20 20 20 20 20 20 20 
       000033C9 20 20 20 20 20 20 20 20 20 20 
       000033D3 20 20 20 20 20 20 20 2E 2E 2E 
       000033DD 2E 2E 2E 2E 2E 2E 2E 2E 2E 2E 
       000033E7 2E 2E 2E 2E 2E 2E 2E 2E 2E 2E 
       000033F1 2E 2E 2E 20 20 20 20 20 20 20 
       000033FB 20 20 20 20 20 20 20 20 20 20 
       00003405 20 20 20 20 20 20 20 20 20 20 
       0000340F 20 20 20 2C 4F 4F 4F 4F 4F 4F 
       00003419 4F 4F 4F 4F 4F 4F 4F 4F 4F 4F 
       00003423 4F 4F 4F 4F 4F 4F 4F 4F 4F 4F 
       0000342D 4F 4F 4F 4F 4F 4F 4F 4F 4F 4F 
       00003437 4F 4F 4F 4F 4F 
  2716 0000343C 4F 6F 6F 6F 6F 6F 6F 6F 6F 6F   	DB	"OoooooooooooooooooooooooooooooooooooooooOOOOOo...                        ,/@          ...................                        ....OOOOOOOOOOOOOOOOOOOOOOOOOOOOOOOOOOOOOOOOOO"
       00003446 6F 6F 6F 6F 6F 6F 6F 6F 6F 6F 
       00003450 6F 6F 6F 6F 6F 6F 6F 6F 6F 6F 
       0000345A 6F 6F 6F 6F 6F 6F 6F 6F 6F 6F 
       00003464 4F 4F 4F 4F 4F 6F 2E 2E 2E 20 
       0000346E 20 20 20 20 20 20 20 20 20 20 
       00003478 20 20 20 20 20 20 20 20 20 20 
       00003482 20 20 20 2C 2F 40 20 20 20 20 
       0000348C 20 20 20 20 20 20 2E 2E 2E 2E 
       00003496 2E 2E 2E 2E 2E 2E 2E 2E 2E 2E 
       000034A0 2E 2E 2E 2E 2E 20 20 20 20 20 
       000034AA 20 20 20 20 20 20 20 20 20 20 
       000034B4 20 20 20 20 20 20 20 20 20 2E 
       000034BE 2E 2E 2E 4F 4F 4F 4F 4F 4F 4F 
       000034C8 4F 4F 4F 4F 4F 4F 4F 4F 4F 4F 
       000034D2 4F 4F 4F 4F 4F 4F 4F 4F 4F 4F 
       000034DC 4F 4F 4F 4F 4F 4F 4F 4F 4F 4F 
       000034E6 4F 4F 4F 4F 4F 
  2717 000034EB 4F 6F 6F 6F 6F 6F 6F 6F 6F 6F   	DB	"OooooooooooooooooooooooooooooooooooooooooOOOO^........               ,/@@@@@@@@.                     ,@@@@@@]               ........OOOOOOOOOOOOOOOOOOOOOOOOOOOOOOOOOOOOOOOOOOO"
       000034F5 6F 6F 6F 6F 6F 6F 6F 6F 6F 6F 
       000034FF 6F 6F 6F 6F 6F 6F 6F 6F 6F 6F 
       00003509 6F 6F 6F 6F 6F 6F 6F 6F 6F 6F 
       00003513 6F 4F 4F 4F 4F 5E 2E 2E 2E 2E 
       0000351D 2E 2E 2E 2E 20 20 20 20 20 20 
       00003527 20 20 20 20 20 20 20 20 20 2C 
       00003531 2F 40 40 40 40 40 40 40 40 2E 
       0000353B 20 20 20 20 20 20 20 20 20 20 
       00003545 20 20 20 20 20 20 20 20 20 20 
       0000354F 20 2C 40 40 40 40 40 40 5D 20 
       00003559 20 20 20 20 20 20 20 20 20 20 
       00003563 20 20 20 20 2E 2E 2E 2E 2E 2E 
       0000356D 2E 2E 4F 4F 4F 4F 4F 4F 4F 4F 
       00003577 4F 4F 4F 4F 4F 4F 4F 4F 4F 4F 
       00003581 4F 4F 4F 4F 4F 4F 4F 4F 4F 4F 
       0000358B 4F 4F 4F 4F 4F 4F 4F 4F 4F 4F 
       00003595 4F 4F 4F 4F 4F 
  2718 0000359A 4F 6F 6F 6F 6F 6F 6F 6F 6F 6F   	DB	"OoooooooooooooooooooooooooooooooooooooooOOOOO/........************..@@@@@@@@@@@@@@@@O]]].      .]]/@@@@@@@@@@@@@.*************........OOOOOOOOOOOOOOOOOOOOOOOOOOOOOOOOOOOOOOOOO"
       000035A4 6F 6F 6F 6F 6F 6F 6F 6F 6F 6F 
       000035AE 6F 6F 6F 6F 6F 6F 6F 6F 6F 6F 
       000035B8 6F 6F 6F 6F 6F 6F 6F 6F 6F 6F 
       000035C2 4F 4F 4F 4F 4F 2F 2E 2E 2E 2E 
       000035CC 2E 2E 2E 2E 2A 2A 2A 2A 2A 2A 
       000035D6 2A 2A 2A 2A 2A 2A 2E 2E 40 40 
       000035E0 40 40 40 40 40 40 40 40 40 40 
       000035EA 40 40 40 40 4F 5D 5D 5D 2E 20 
       000035F4 20 20 20 20 20 2E 5D 5D 2F 40 
       000035FE 40 40 40 40 40 40 40 40 40 40 
       00003608 40 40 2E 2A 2A 2A 2A 2A 2A 2A 
       00003612 2A 2A 2A 2A 2A 2A 2E 2E 2E 2E 
       0000361C 2E 2E 2E 2E 4F 4F 4F 4F 4F 4F 
       00003626 4F 4F 4F 4F 4F 4F 4F 4F 4F 4F 
       00003630 4F 4F 4F 4F 4F 4F 4F 4F 4F 4F 
       0000363A 4F 4F 4F 4F 4F 4F 4F 4F 4F 4F 
       00003644 4F 4F 4F 4F 4F 
  2719 00003649 4F 6F 6F 6F 6F 6F 6F 6F 6F 6F   	DB	"OooooooooooooooooooooooooooooooooooooooooOOOO^............*.........@@@@@@@@@@@@@@@@@@@@@@@@@@@@@@@@@@@@@@@@@@@@........*.............OOOOOOOOOOOOOOOOOOOOOOOOO/`        .OOOOO"
       00003653 6F 6F 6F 6F 6F 6F 6F 6F 6F 6F 
       0000365D 6F 6F 6F 6F 6F 6F 6F 6F 6F 6F 
       00003667 6F 6F 6F 6F 6F 6F 6F 6F 6F 6F 
       00003671 6F 4F 4F 4F 4F 5E 2E 2E 2E 2E 
       0000367B 2E 2E 2E 2E 2E 2E 2E 2E 2A 2E 
       00003685 2E 2E 2E 2E 2E 2E 2E 2E 40 40 
       0000368F 40 40 40 40 40 40 40 40 40 40 
       00003699 40 40 40 40 40 40 40 40 40 40 
       000036A3 40 40 40 40 40 40 40 40 40 40 
       000036AD 40 40 40 40 40 40 40 40 40 40 
       000036B7 40 40 2E 2E 2E 2E 2E 2E 2E 2E 
       000036C1 2A 2E 2E 2E 2E 2E 2E 2E 2E 2E 
       000036CB 2E 2E 2E 2E 4F 4F 4F 4F 4F 4F 
       000036D5 4F 4F 4F 4F 4F 4F 4F 4F 4F 4F 
       000036DF 4F 4F 4F 4F 4F 4F 4F 4F 4F 2F 
       000036E9 60 20 20 20 20 20 20 20 20 2E 
       000036F3 4F 4F 4F 4F 4F 
  2720 000036F8 4F 6F 6F 6F 6F 6F 6F 6F 6F 6F   	DB	"Oooooooooooooooooo[`[[oooooooooooooooooooOOOO..... .. .............@@@@@@@@@@@@@@@@@@@@@@@@@@@@@@@@@@@@@@@@@@@@............. .. .....OOOOOOOOOOOOOOOOOOOOOOO`     ....     ,OOO"
       00003702 6F 6F 6F 6F 6F 6F 6F 6F 5B 60 
       0000370C 5B 5B 6F 6F 6F 6F 6F 6F 6F 6F 
       00003716 6F 6F 6F 6F 6F 6F 6F 6F 6F 6F 
       00003720 6F 4F 4F 4F 4F 2E 2E 2E 2E 2E 
       0000372A 20 2E 2E 20 2E 2E 2E 2E 2E 2E 
       00003734 2E 2E 2E 2E 2E 2E 2E 40 40 40 
       0000373E 40 40 40 40 40 40 40 40 40 40 
       00003748 40 40 40 40 40 40 40 40 40 40 
       00003752 40 40 40 40 40 40 40 40 40 40 
       0000375C 40 40 40 40 40 40 40 40 40 40 
       00003766 40 2E 2E 2E 2E 2E 2E 2E 2E 2E 
       00003770 2E 2E 2E 2E 20 2E 2E 20 2E 2E 
       0000377A 2E 2E 2E 4F 4F 4F 4F 4F 4F 4F 
       00003784 4F 4F 4F 4F 4F 4F 4F 4F 4F 4F 
       0000378E 4F 4F 4F 4F 4F 4F 60 20 20 20 
       00003798 20 20 2E 2E 2E 2E 20 20 20 20 
       000037A2 20 2C 4F 4F 4F 
  2721 000037A7 4F 6F 6F 6F 6F 6F 6F 6F 6F 6F   	DB	"Oooooooooooooooo`.......oooooooooooooooooOOOO^...  .  ..............@@@@@@@@@@@@@@@@@@@@@@@@@@@@@@@@@@@@@@@@@@^...........  .  ......OOOOOOOOOOOOOOOOOOOOO/   ............   OO"
       000037B1 6F 6F 6F 6F 6F 6F 60 2E 2E 2E 
       000037BB 2E 2E 2E 2E 6F 6F 6F 6F 6F 6F 
       000037C5 6F 6F 6F 6F 6F 6F 6F 6F 6F 6F 
       000037CF 6F 4F 4F 4F 4F 5E 2E 2E 2E 20 
       000037D9 20 2E 20 20 2E 2E 2E 2E 2E 2E 
       000037E3 2E 2E 2E 2E 2E 2E 2E 2E 40 40 
       000037ED 40 40 40 40 40 40 40 40 40 40 
       000037F7 40 40 40 40 40 40 40 40 40 40 
       00003801 40 40 40 40 40 40 40 40 40 40 
       0000380B 40 40 40 40 40 40 40 40 40 40 
       00003815 5E 2E 2E 2E 2E 2E 2E 2E 2E 2E 
       0000381F 2E 2E 20 20 2E 20 20 2E 2E 2E 
       00003829 2E 2E 2E 4F 4F 4F 4F 4F 4F 4F 
       00003833 4F 4F 4F 4F 4F 4F 4F 4F 4F 4F 
       0000383D 4F 4F 4F 4F 2F 20 20 20 2E 2E 
       00003847 2E 2E 2E 2E 2E 2E 2E 2E 2E 2E 
       00003851 20 20 20 4F 4F 
  2722 00003856 4F 6F 6F 6F 6F 6F 6F 6F 6F 6F   	DB	"Ooooooooooooooo^........*oooooooooooooooooOOOo......................,@@@@@@@@@@@@@@@@@@@@@@@@@@@@@@@@@@@@@@@@@@`......................OOOOOOOOOOOOOOOOOOOOO   ..............  ."
       00003860 6F 6F 6F 6F 6F 5E 2E 2E 2E 2E 
       0000386A 2E 2E 2E 2E 2A 6F 6F 6F 6F 6F 
       00003874 6F 6F 6F 6F 6F 6F 6F 6F 6F 6F 
       0000387E 6F 6F 4F 4F 4F 6F 2E 2E 2E 2E 
       00003888 2E 2E 2E 2E 2E 2E 2E 2E 2E 2E 
       00003892 2E 2E 2E 2E 2E 2E 2E 2E 2C 40 
       0000389C 40 40 40 40 40 40 40 40 40 40 
       000038A6 40 40 40 40 40 40 40 40 40 40 
       000038B0 40 40 40 40 40 40 40 40 40 40 
       000038BA 40 40 40 40 40 40 40 40 40 40 
       000038C4 40 60 2E 2E 2E 2E 2E 2E 2E 2E 
       000038CE 2E 2E 2E 2E 2E 2E 2E 2E 2E 2E 
       000038D8 2E 2E 2E 2E 4F 4F 4F 4F 4F 4F 
       000038E2 4F 4F 4F 4F 4F 4F 4F 4F 4F 4F 
       000038EC 4F 4F 4F 4F 4F 20 20 20 2E 2E 
       000038F6 2E 2E 2E 2E 2E 2E 2E 2E 2E 2E 
       00003900 2E 2E 20 20 2E 
  2723 00003905 4F 6F 6F 6F 6F 6F 6F 6F 6F 6F   	DB	"Ooooooooooooooo^........*oooooooooooooooooOOO^.......................=@@@@@@@@@@@@@@@@@@@@@@@@@@@@@@@@@@@@@@@@^.......................OOOOOOOOOOOOOOOOOOOO^  ...............   "
       0000390F 6F 6F 6F 6F 6F 5E 2E 2E 2E 2E 
       00003919 2E 2E 2E 2E 2A 6F 6F 6F 6F 6F 
       00003923 6F 6F 6F 6F 6F 6F 6F 6F 6F 6F 
       0000392D 6F 6F 4F 4F 4F 5E 2E 2E 2E 2E 
       00003937 2E 2E 2E 2E 2E 2E 2E 2E 2E 2E 
       00003941 2E 2E 2E 2E 2E 2E 2E 2E 2E 3D 
       0000394B 40 40 40 40 40 40 40 40 40 40 
       00003955 40 40 40 40 40 40 40 40 40 40 
       0000395F 40 40 40 40 40 40 40 40 40 40 
       00003969 40 40 40 40 40 40 40 40 40 40 
       00003973 5E 2E 2E 2E 2E 2E 2E 2E 2E 2E 
       0000397D 2E 2E 2E 2E 2E 2E 2E 2E 2E 2E 
       00003987 2E 2E 2E 2E 4F 4F 4F 4F 4F 4F 
       00003991 4F 4F 4F 4F 4F 4F 4F 4F 4F 4F 
       0000399B 4F 4F 4F 4F 5E 20 20 2E 2E 2E 
       000039A5 2E 2E 2E 2E 2E 2E 2E 2E 2E 2E 
       000039AF 2E 2E 20 20 20 
  2724 000039B4 4F 6F 6F 6F 6F 6F 6F 6F 6F 6F   	DB	"Oooooooooooooooo^......*ooooooooooooooooooOOO^....................... @@@@@@@@@@@@@@@@@@@@@@@@@@@@@@@@@@@@@@/ .......................OOOOOOOOOOOOOOOOOOOO^  ................  ="
       000039BE 6F 6F 6F 6F 6F 6F 5E 2E 2E 2E 
       000039C8 2E 2E 2E 2A 6F 6F 6F 6F 6F 6F 
       000039D2 6F 6F 6F 6F 6F 6F 6F 6F 6F 6F 
       000039DC 6F 6F 4F 4F 4F 5E 2E 2E 2E 2E 
       000039E6 2E 2E 2E 2E 2E 2E 2E 2E 2E 2E 
       000039F0 2E 2E 2E 2E 2E 2E 2E 2E 2E 20 
       000039FA 40 40 40 40 40 40 40 40 40 40 
       00003A04 40 40 40 40 40 40 40 40 40 40 
       00003A0E 40 40 40 40 40 40 40 40 40 40 
       00003A18 40 40 40 40 40 40 40 40 2F 20 
       00003A22 2E 2E 2E 2E 2E 2E 2E 2E 2E 2E 
       00003A2C 2E 2E 2E 2E 2E 2E 2E 2E 2E 2E 
       00003A36 2E 2E 2E 4F 4F 4F 4F 4F 4F 4F 
       00003A40 4F 4F 4F 4F 4F 4F 4F 4F 4F 4F 
       00003A4A 4F 4F 4F 5E 20 20 2E 2E 2E 2E 
       00003A54 2E 2E 2E 2E 2E 2E 2E 2E 2E 2E 
       00003A5E 2E 2E 20 20 3D 
  2725 00003A63 4F 6F 6F 6F 6F 6F 6F 6F 6F 6F   	DB	"Oooooooooooooooooooo/oooooooooooooooooooooOOO........................ @@@@@@@@@@@@@@@@@@@@@@@@@@@@@@@@@@@@/ ........................OOOOOOOOOOOOOOOOOOOO^   ..............   /O"
       00003A6D 6F 6F 6F 6F 6F 6F 6F 6F 6F 6F 
       00003A77 2F 6F 6F 6F 6F 6F 6F 6F 6F 6F 
       00003A81 6F 6F 6F 6F 6F 6F 6F 6F 6F 6F 
       00003A8B 6F 6F 4F 4F 4F 2E 2E 2E 2E 2E 
       00003A95 2E 2E 2E 2E 2E 2E 2E 2E 2E 2E 
       00003A9F 2E 2E 2E 2E 2E 2E 2E 2E 2E 20 
       00003AA9 40 40 40 40 40 40 40 40 40 40 
       00003AB3 40 40 40 40 40 40 40 40 40 40 
       00003ABD 40 40 40 40 40 40 40 40 40 40 
       00003AC7 40 40 40 40 40 40 2F 20 2E 2E 
       00003AD1 2E 2E 2E 2E 2E 2E 2E 2E 2E 2E 
       00003ADB 2E 2E 2E 2E 2E 2E 2E 2E 2E 2E 
       00003AE5 2E 2E 4F 4F 4F 4F 4F 4F 4F 4F 
       00003AEF 4F 4F 4F 4F 4F 4F 4F 4F 4F 4F 
       00003AF9 4F 4F 5E 20 20 20 2E 2E 2E 2E 
       00003B03 2E 2E 2E 2E 2E 2E 2E 2E 2E 2E 
       00003B0D 20 20 20 2F 4F 
  2726 00003B12 4F 6F 6F 6F 6F 6F 6F 6F 6F 6F   	DB	"OoooooooooooooooooooooooooooooooooooooooooOOO^ ........................ ,@@@@@@@@@@@@@@@@@@@@@@@Oooo/ooO@. ................... .....OOOOOOOOOOOOOOOOOOOOO^   ............   =OO"
       00003B1C 6F 6F 6F 6F 6F 6F 6F 6F 6F 6F 
       00003B26 6F 6F 6F 6F 6F 6F 6F 6F 6F 6F 
       00003B30 6F 6F 6F 6F 6F 6F 6F 6F 6F 6F 
       00003B3A 6F 6F 4F 4F 4F 5E 20 2E 2E 2E 
       00003B44 2E 2E 2E 2E 2E 2E 2E 2E 2E 2E 
       00003B4E 2E 2E 2E 2E 2E 2E 2E 2E 2E 2E 
       00003B58 2E 20 2C 40 40 40 40 40 40 40 
       00003B62 40 40 40 40 40 40 40 40 40 40 
       00003B6C 40 40 40 40 40 40 4F 6F 6F 6F 
       00003B76 2F 6F 6F 4F 40 2E 20 2E 2E 2E 
       00003B80 2E 2E 2E 2E 2E 2E 2E 2E 2E 2E 
       00003B8A 2E 2E 2E 2E 2E 2E 20 2E 2E 2E 
       00003B94 2E 2E 4F 4F 4F 4F 4F 4F 4F 4F 
       00003B9E 4F 4F 4F 4F 4F 4F 4F 4F 4F 4F 
       00003BA8 4F 4F 4F 5E 20 20 20 2E 2E 2E 
       00003BB2 2E 2E 2E 2E 2E 2E 2E 2E 2E 20 
       00003BBC 20 20 3D 4F 4F 
  2727 00003BC1 4F 6F 6F 6F 6F 6F 6F 6F 6F 6F   	DB	"OoooooooooooooooooooooooooooooooooooooooooOOO^      ..................... ,@@@@@@@@@@OooooooooooooOOooooooo].................       .OOOOOOOOOOOOOOOOOOOOOO    .......     /OOO"
       00003BCB 6F 6F 6F 6F 6F 6F 6F 6F 6F 6F 
       00003BD5 6F 6F 6F 6F 6F 6F 6F 6F 6F 6F 
       00003BDF 6F 6F 6F 6F 6F 6F 6F 6F 6F 6F 
       00003BE9 6F 6F 4F 4F 4F 5E 20 20 20 20 
       00003BF3 20 20 2E 2E 2E 2E 2E 2E 2E 2E 
       00003BFD 2E 2E 2E 2E 2E 2E 2E 2E 2E 2E 
       00003C07 2E 2E 2E 20 2C 40 40 40 40 40 
       00003C11 40 40 40 40 40 4F 6F 6F 6F 6F 
       00003C1B 6F 6F 6F 6F 6F 6F 6F 6F 4F 4F 
       00003C25 6F 6F 6F 6F 6F 6F 6F 5D 2E 2E 
       00003C2F 2E 2E 2E 2E 2E 2E 2E 2E 2E 2E 
       00003C39 2E 2E 2E 2E 2E 20 20 20 20 20 
       00003C43 20 20 2E 4F 4F 4F 4F 4F 4F 4F 
       00003C4D 4F 4F 4F 4F 4F 4F 4F 4F 4F 4F 
       00003C57 4F 4F 4F 4F 4F 20 20 20 20 2E 
       00003C61 2E 2E 2E 2E 2E 2E 20 20 20 20 
       00003C6B 20 2F 4F 4F 4F 
  2728 00003C70 4F 6F 6F 6F 6F 6F 6F 6F 6F 6F   	DB	"OoooooooooooooooooooooooooooooooooooooooooOOO^        ....................  ,@@@@@ooooooooooooooooooOooooooo,^..............        .OOOOOOOOOOOOOOOOOOOOOOOO`          ,/OOOOO"
       00003C7A 6F 6F 6F 6F 6F 6F 6F 6F 6F 6F 
       00003C84 6F 6F 6F 6F 6F 6F 6F 6F 6F 6F 
       00003C8E 6F 6F 6F 6F 6F 6F 6F 6F 6F 6F 
       00003C98 6F 6F 4F 4F 4F 5E 20 20 20 20 
       00003CA2 20 20 20 20 2E 2E 2E 2E 2E 2E 
       00003CAC 2E 2E 2E 2E 2E 2E 2E 2E 2E 2E 
       00003CB6 2E 2E 2E 2E 20 20 2C 40 40 40 
       00003CC0 40 40 6F 6F 6F 6F 6F 6F 6F 6F 
       00003CCA 6F 6F 6F 6F 6F 6F 6F 6F 6F 6F 
       00003CD4 4F 6F 6F 6F 6F 6F 6F 6F 2C 5E 
       00003CDE 2E 2E 2E 2E 2E 2E 2E 2E 2E 2E 
       00003CE8 2E 2E 2E 2E 20 20 20 20 20 20 
       00003CF2 20 20 2E 4F 4F 4F 4F 4F 4F 4F 
       00003CFC 4F 4F 4F 4F 4F 4F 4F 4F 4F 4F 
       00003D06 4F 4F 4F 4F 4F 4F 4F 60 20 20 
       00003D10 20 20 20 20 20 20 20 20 2C 2F 
       00003D1A 4F 4F 4F 4F 4F 
  2729 00003D1F 4F 6F 6F 6F 6F 6F 6F 6F 6F 6F   	DB	"OoooooooooooooooooooooooooooooooooooooooooOOO^         .....................   ,[@ooooooooooooooooooooOooooooo/`.............        .OOOOOOOOOOOOOOOOOOOOOOOOOOOOO]]/OOOOOOOOO"
       00003D29 6F 6F 6F 6F 6F 6F 6F 6F 6F 6F 
       00003D33 6F 6F 6F 6F 6F 6F 6F 6F 6F 6F 
       00003D3D 6F 6F 6F 6F 6F 6F 6F 6F 6F 6F 
       00003D47 6F 6F 4F 4F 4F 5E 20 20 20 20 
       00003D51 20 20 20 20 20 2E 2E 2E 2E 2E 
       00003D5B 2E 2E 2E 2E 2E 2E 2E 2E 2E 2E 
       00003D65 2E 2E 2E 2E 2E 2E 20 20 20 2C 
       00003D6F 5B 40 6F 6F 6F 6F 6F 6F 6F 6F 
       00003D79 6F 6F 6F 6F 6F 6F 6F 6F 6F 6F 
       00003D83 6F 6F 4F 6F 6F 6F 6F 6F 6F 6F 
       00003D8D 2F 60 2E 2E 2E 2E 2E 2E 2E 2E 
       00003D97 2E 2E 2E 2E 2E 20 20 20 20 20 
       00003DA1 20 20 20 2E 4F 4F 4F 4F 4F 4F 
       00003DAB 4F 4F 4F 4F 4F 4F 4F 4F 4F 4F 
       00003DB5 4F 4F 4F 4F 4F 4F 4F 4F 4F 4F 
       00003DBF 4F 4F 4F 5D 5D 2F 4F 4F 4F 4F 
       00003DC9 4F 4F 4F 4F 4F 
  2730 00003DCE 4F 6F 6F 6F 6F 6F 6F 6F 6F 6F   	DB	"OoooooooooooooooooooooooooooooooooooooooooOOO^        ..........................    ,oooooooooooooooooooo//ooo[`^............        .OOOOOOOOOOOOOOOOOOOOOOOOOOOOOOOOOOOOOOOOO"
       00003DD8 6F 6F 6F 6F 6F 6F 6F 6F 6F 6F 
       00003DE2 6F 6F 6F 6F 6F 6F 6F 6F 6F 6F 
       00003DEC 6F 6F 6F 6F 6F 6F 6F 6F 6F 6F 
       00003DF6 6F 6F 4F 4F 4F 5E 20 20 20 20 
       00003E00 20 20 20 20 2E 2E 2E 2E 2E 2E 
       00003E0A 2E 2E 2E 2E 2E 2E 2E 2E 2E 2E 
       00003E14 2E 2E 2E 2E 2E 2E 2E 2E 2E 2E 
       00003E1E 20 20 20 20 2C 6F 6F 6F 6F 6F 
       00003E28 6F 6F 6F 6F 6F 6F 6F 6F 6F 6F 
       00003E32 6F 6F 6F 6F 6F 2F 2F 6F 6F 6F 
       00003E3C 5B 60 5E 2E 2E 2E 2E 2E 2E 2E 
       00003E46 2E 2E 2E 2E 2E 20 20 20 20 20 
       00003E50 20 20 20 2E 4F 4F 4F 4F 4F 4F 
       00003E5A 4F 4F 4F 4F 4F 4F 4F 4F 4F 4F 
       00003E64 4F 4F 4F 4F 4F 4F 4F 4F 4F 4F 
       00003E6E 4F 4F 4F 4F 4F 4F 4F 4F 4F 4F 
       00003E78 4F 4F 4F 4F 4F 
  2731 00003E7D 4F 6F 6F 6F 6F 6F 6F 6F 6F 6F   	DB	"OoooooooooooooooooooooooooooooooooooooooooOOO^        ...............................=oooooooooooooooooo////[[=*...........        .OOOOOOOOOOOOOOOOOOOOOOOOOOOOOOOOOOOOOOOOOOO"
       00003E87 6F 6F 6F 6F 6F 6F 6F 6F 6F 6F 
       00003E91 6F 6F 6F 6F 6F 6F 6F 6F 6F 6F 
       00003E9B 6F 6F 6F 6F 6F 6F 6F 6F 6F 6F 
       00003EA5 6F 6F 4F 4F 4F 5E 20 20 20 20 
       00003EAF 20 20 20 20 2E 2E 2E 2E 2E 2E 
       00003EB9 2E 2E 2E 2E 2E 2E 2E 2E 2E 2E 
       00003EC3 2E 2E 2E 2E 2E 2E 2E 2E 2E 2E 
       00003ECD 2E 2E 2E 2E 2E 3D 6F 6F 6F 6F 
       00003ED7 6F 6F 6F 6F 6F 6F 6F 6F 6F 6F 
       00003EE1 6F 6F 6F 6F 2F 2F 2F 2F 5B 5B 
       00003EEB 3D 2A 2E 2E 2E 2E 2E 2E 2E 2E 
       00003EF5 2E 2E 2E 20 20 20 20 20 20 20 
       00003EFF 20 2E 4F 4F 4F 4F 4F 4F 4F 4F 
       00003F09 4F 4F 4F 4F 4F 4F 4F 4F 4F 4F 
       00003F13 4F 4F 4F 4F 4F 4F 4F 4F 4F 4F 
       00003F1D 4F 4F 4F 4F 4F 4F 4F 4F 4F 4F 
       00003F27 4F 4F 4F 4F 4F 
  2732 00003F2C 4F 6F 6F 6F 6F 6F 6F 6F 6F 6F   	DB	"OoooooooooooooooooooooooooooooooooooooooooOOO^        ................................oooooooooooooooooo`***`,]*[*...........        .OOOOOOOOOOOOOOOOOOOOOOOOOOOOOOOOOOOOOOOOO"
       00003F36 6F 6F 6F 6F 6F 6F 6F 6F 6F 6F 
       00003F40 6F 6F 6F 6F 6F 6F 6F 6F 6F 6F 
       00003F4A 6F 6F 6F 6F 6F 6F 6F 6F 6F 6F 
       00003F54 6F 6F 4F 4F 4F 5E 20 20 20 20 
       00003F5E 20 20 20 20 2E 2E 2E 2E 2E 2E 
       00003F68 2E 2E 2E 2E 2E 2E 2E 2E 2E 2E 
       00003F72 2E 2E 2E 2E 2E 2E 2E 2E 2E 2E 
       00003F7C 2E 2E 2E 2E 2E 2E 6F 6F 6F 6F 
       00003F86 6F 6F 6F 6F 6F 6F 6F 6F 6F 6F 
       00003F90 6F 6F 6F 6F 60 2A 2A 2A 60 2C 
       00003F9A 5D 2A 5B 2A 2E 2E 2E 2E 2E 2E 
       00003FA4 2E 2E 2E 2E 2E 20 20 20 20 20 
       00003FAE 20 20 20 2E 4F 4F 4F 4F 4F 4F 
       00003FB8 4F 4F 4F 4F 4F 4F 4F 4F 4F 4F 
       00003FC2 4F 4F 4F 4F 4F 4F 4F 4F 4F 4F 
       00003FCC 4F 4F 4F 4F 4F 4F 4F 4F 4F 4F 
       00003FD6 4F 4F 4F 4F 4F 
  2733 00003FDB 4F 6F 6F 6F 6F 6F 6F 6F 6F 6F   	DB	"OoooooooooooooooooooooooooooooooooooooooooOOO^        ................................*o^o]^//************o*****...........        .OOOOOOOOOOOOOOOOOOOOOOOOOOOOOOOOOOOOOOOOOOO"
       00003FE5 6F 6F 6F 6F 6F 6F 6F 6F 6F 6F 
       00003FEF 6F 6F 6F 6F 6F 6F 6F 6F 6F 6F 
       00003FF9 6F 6F 6F 6F 6F 6F 6F 6F 6F 6F 
       00004003 6F 6F 4F 4F 4F 5E 20 20 20 20 
       0000400D 20 20 20 20 2E 2E 2E 2E 2E 2E 
       00004017 2E 2E 2E 2E 2E 2E 2E 2E 2E 2E 
       00004021 2E 2E 2E 2E 2E 2E 2E 2E 2E 2E 
       0000402B 2E 2E 2E 2E 2E 2E 2A 6F 5E 6F 
       00004035 5D 5E 2F 2F 2A 2A 2A 2A 2A 2A 
       0000403F 2A 2A 2A 2A 2A 2A 6F 2A 2A 2A 
       00004049 2A 2A 2E 2E 2E 2E 2E 2E 2E 2E 
       00004053 2E 2E 2E 20 20 20 20 20 20 20 
       0000405D 20 2E 4F 4F 4F 4F 4F 4F 4F 4F 
       00004067 4F 4F 4F 4F 4F 4F 4F 4F 4F 4F 
       00004071 4F 4F 4F 4F 4F 4F 4F 4F 4F 4F 
       0000407B 4F 4F 4F 4F 4F 4F 4F 4F 4F 4F 
       00004085 4F 4F 4F 4F 4F 
  2734 0000408A 4F 6F 6F 6F 6F 6F 6F 6F 6F 6F   	DB	"Oooooooooooo/o=^=,=,=^oooooooooooooooooooOOO^        ................................,,`,`*[[[/,[*,,^*`,^`/*,/***...........        .OOOOOOOOOOOOOOOOOOOOOOOOOOOOOOOOOOOOOOOOOO"
       00004094 6F 6F 2F 6F 3D 5E 3D 2C 3D 2C 
       0000409E 3D 5E 6F 6F 6F 6F 6F 6F 6F 6F 
       000040A8 6F 6F 6F 6F 6F 6F 6F 6F 6F 6F 
       000040B2 6F 4F 4F 4F 5E 20 20 20 20 20 
       000040BC 20 20 20 2E 2E 2E 2E 2E 2E 2E 
       000040C6 2E 2E 2E 2E 2E 2E 2E 2E 2E 2E 
       000040D0 2E 2E 2E 2E 2E 2E 2E 2E 2E 2E 
       000040DA 2E 2E 2E 2E 2E 2C 2C 60 2C 60 
       000040E4 2A 5B 5B 5B 2F 2C 5B 2A 2C 2C 
       000040EE 5E 2A 60 2C 5E 60 2F 2A 2C 2F 
       000040F8 2A 2A 2A 2E 2E 2E 2E 2E 2E 2E 
       00004102 2E 2E 2E 2E 20 20 20 20 20 20 
       0000410C 20 20 2E 4F 4F 4F 4F 4F 4F 4F 
       00004116 4F 4F 4F 4F 4F 4F 4F 4F 4F 4F 
       00004120 4F 4F 4F 4F 4F 4F 4F 4F 4F 4F 
       0000412A 4F 4F 4F 4F 4F 4F 4F 4F 4F 4F 
       00004134 4F 4F 4F 4F 4F 
  2735 00004139 4F 6F 6F 6F 6F 6F 6F 6F 6F 6F   	DB	"Oooooooooo/[************oooooooooooooooooOOO^        ................................***o=^********[*,`[[`,,=****...........        .OOOOOOOOOOOOOOOOOOOOOOOOOOOOOOOOOOOOOOOOOO"
       00004143 2F 5B 2A 2A 2A 2A 2A 2A 2A 2A 
       0000414D 2A 2A 2A 2A 6F 6F 6F 6F 6F 6F 
       00004157 6F 6F 6F 6F 6F 6F 6F 6F 6F 6F 
       00004161 6F 4F 4F 4F 5E 20 20 20 20 20 
       0000416B 20 20 20 2E 2E 2E 2E 2E 2E 2E 
       00004175 2E 2E 2E 2E 2E 2E 2E 2E 2E 2E 
       0000417F 2E 2E 2E 2E 2E 2E 2E 2E 2E 2E 
       00004189 2E 2E 2E 2E 2E 2A 2A 2A 6F 3D 
       00004193 5E 2A 2A 2A 2A 2A 2A 2A 2A 5B 
       0000419D 2A 2C 60 5B 5B 60 2C 2C 3D 2A 
       000041A7 2A 2A 2A 2E 2E 2E 2E 2E 2E 2E 
       000041B1 2E 2E 2E 2E 20 20 20 20 20 20 
       000041BB 20 20 2E 4F 4F 4F 4F 4F 4F 4F 
       000041C5 4F 4F 4F 4F 4F 4F 4F 4F 4F 4F 
       000041CF 4F 4F 4F 4F 4F 4F 4F 4F 4F 4F 
       000041D9 4F 4F 4F 4F 4F 4F 4F 4F 4F 4F 
       000041E3 4F 4F 4F 4F 4F 
  2736 000041E8 4F 6F 6F 6F 6F 6F 6F 6F 5B 2A   	DB	"Oooooooo[**`.       .`*,*o/ooooooooooooooOOO^        ................................*^*,`*`*`,*]`/*[,,],*,***.............       .OOOOOOOOOOOOOOOOOOOOOOOOOOOOOOOOOOOOOOOOOOOO"
       000041F2 2A 60 2E 20 20 20 20 20 20 20 
       000041FC 2E 60 2A 2C 2A 6F 2F 6F 6F 6F 
       00004206 6F 6F 6F 6F 6F 6F 6F 6F 6F 6F 
       00004210 6F 4F 4F 4F 5E 20 20 20 20 20 
       0000421A 20 20 20 2E 2E 2E 2E 2E 2E 2E 
       00004224 2E 2E 2E 2E 2E 2E 2E 2E 2E 2E 
       0000422E 2E 2E 2E 2E 2E 2E 2E 2E 2E 2E 
       00004238 2E 2E 2E 2E 2E 2A 5E 2A 2C 60 
       00004242 2A 60 2A 60 2C 2A 5D 60 2F 2A 
       0000424C 5B 2C 2C 5D 2C 2A 2C 2A 2A 2A 
       00004256 2E 2E 2E 2E 2E 2E 2E 2E 2E 2E 
       00004260 2E 2E 2E 20 20 20 20 20 20 20 
       0000426A 2E 4F 4F 4F 4F 4F 4F 4F 4F 4F 
       00004274 4F 4F 4F 4F 4F 4F 4F 4F 4F 4F 
       0000427E 4F 4F 4F 4F 4F 4F 4F 4F 4F 4F 
       00004288 4F 4F 4F 4F 4F 4F 4F 4F 4F 4F 
       00004292 4F 4F 4F 4F 4F 
  2737 00004297 6F 6F 6F 6F 6F 6F 6F 6F 2A 2A   	DB	"oooooooo***.   ......   ,**^/oooooooooooooOOO^        .................................=oo]o*,/***`,^=^*`[`,**..............       .OOOOOOOOOOOOOOOOOOOOOOOOOOOOOOOOOOOOOOOOOOO"
       000042A1 2A 2E 20 20 20 2E 2E 2E 2E 2E 
       000042AB 2E 20 20 20 2C 2A 2A 5E 2F 6F 
       000042B5 6F 6F 6F 6F 6F 6F 6F 6F 6F 6F 
       000042BF 6F 6F 4F 4F 4F 5E 20 20 20 20 
       000042C9 20 20 20 20 2E 2E 2E 2E 2E 2E 
       000042D3 2E 2E 2E 2E 2E 2E 2E 2E 2E 2E 
       000042DD 2E 2E 2E 2E 2E 2E 2E 2E 2E 2E 
       000042E7 2E 2E 2E 2E 2E 2E 2E 3D 6F 6F 
       000042F1 5D 6F 2A 2C 2F 2A 2A 2A 60 2C 
       000042FB 5E 3D 5E 2A 60 5B 60 2C 2A 2A 
       00004305 2E 2E 2E 2E 2E 2E 2E 2E 2E 2E 
       0000430F 2E 2E 2E 2E 20 20 20 20 20 20 
       00004319 20 2E 4F 4F 4F 4F 4F 4F 4F 4F 
       00004323 4F 4F 4F 4F 4F 4F 4F 4F 4F 4F 
       0000432D 4F 4F 4F 4F 4F 4F 4F 4F 4F 4F 
       00004337 4F 4F 4F 4F 4F 4F 4F 4F 4F 4F 
       00004341 4F 4F 4F 4F 4F 
  2738 00004346 3D 6F 6F 6F 6F 6F 5E 2A 60 2C   	DB	"=ooooo^*`,*  ..........  **=,oooooooooooooOOO^        ...................................oooooo]=o`*]o/[oooo`................       .OOOOOOOOOOOOOOOOOOOOOOOOOOOOOOOOOOOOOOOOOO"
       00004350 2A 20 20 2E 2E 2E 2E 2E 2E 2E 
       0000435A 2E 2E 2E 20 20 2A 2A 3D 2C 6F 
       00004364 6F 6F 6F 6F 6F 6F 6F 6F 6F 6F 
       0000436E 6F 6F 4F 4F 4F 5E 20 20 20 20 
       00004378 20 20 20 20 2E 2E 2E 2E 2E 2E 
       00004382 2E 2E 2E 2E 2E 2E 2E 2E 2E 2E 
       0000438C 2E 2E 2E 2E 2E 2E 2E 2E 2E 2E 
       00004396 2E 2E 2E 2E 2E 2E 2E 2E 2E 6F 
       000043A0 6F 6F 6F 6F 6F 5D 3D 6F 60 2A 
       000043AA 5D 6F 2F 5B 6F 6F 6F 6F 60 2E 
       000043B4 2E 2E 2E 2E 2E 2E 2E 2E 2E 2E 
       000043BE 2E 2E 2E 2E 2E 20 20 20 20 20 
       000043C8 20 20 2E 4F 4F 4F 4F 4F 4F 4F 
       000043D2 4F 4F 4F 4F 4F 4F 4F 4F 4F 4F 
       000043DC 4F 4F 4F 4F 4F 4F 4F 4F 4F 4F 
       000043E6 4F 4F 4F 4F 4F 4F 4F 4F 4F 4F 
       000043F0 4F 4F 4F 4F 4F 
  2739 000043F5 3D 6F 6F 6F 6F 6F 6F 6F 2A 2A   	DB	"=ooooooo**. ...........  .*=*oooooooooooooOOO^        .....................................,oooooooooooo/[...................       .OOOOOOOOOOOOOOOOOOOOOOOOOOOOOOOOOOOOOOOOOO"
       000043FF 2E 20 2E 2E 2E 2E 2E 2E 2E 2E 
       00004409 2E 2E 2E 20 20 2E 2A 3D 2A 6F 
       00004413 6F 6F 6F 6F 6F 6F 6F 6F 6F 6F 
       0000441D 6F 6F 4F 4F 4F 5E 20 20 20 20 
       00004427 20 20 20 20 2E 2E 2E 2E 2E 2E 
       00004431 2E 2E 2E 2E 2E 2E 2E 2E 2E 2E 
       0000443B 2E 2E 2E 2E 2E 2E 2E 2E 2E 2E 
       00004445 2E 2E 2E 2E 2E 2E 2E 2E 2E 2E 
       0000444F 2E 2C 6F 6F 6F 6F 6F 6F 6F 6F 
       00004459 6F 6F 6F 6F 2F 5B 2E 2E 2E 2E 
       00004463 2E 2E 2E 2E 2E 2E 2E 2E 2E 2E 
       0000446D 2E 2E 2E 2E 2E 20 20 20 20 20 
       00004477 20 20 2E 4F 4F 4F 4F 4F 4F 4F 
       00004481 4F 4F 4F 4F 4F 4F 4F 4F 4F 4F 
       0000448B 4F 4F 4F 4F 4F 4F 4F 4F 4F 4F 
       00004495 4F 4F 4F 4F 4F 4F 4F 4F 4F 4F 
       0000449F 4F 4F 4F 4F 4F 
  2740 000044A4 20 6F 6F 6F 6F 6F 5B 2A 2A 2E   	DB	" ooooo[**.  ..........  .*=*/ooooooooooooOOO^        ........................................................................       .OOOOOOOOOOOOOOOOOOOOOOOOOOOOOOOOOOOOOOOOOO"
       000044AE 20 20 2E 2E 2E 2E 2E 2E 2E 2E 
       000044B8 2E 2E 20 20 2E 2A 3D 2A 2F 6F 
       000044C2 6F 6F 6F 6F 6F 6F 6F 6F 6F 6F 
       000044CC 6F 4F 4F 4F 5E 20 20 20 20 20 
       000044D6 20 20 20 2E 2E 2E 2E 2E 2E 2E 
       000044E0 2E 2E 2E 2E 2E 2E 2E 2E 2E 2E 
       000044EA 2E 2E 2E 2E 2E 2E 2E 2E 2E 2E 
       000044F4 2E 2E 2E 2E 2E 2E 2E 2E 2E 2E 
       000044FE 2E 2E 2E 2E 2E 2E 2E 2E 2E 2E 
       00004508 2E 2E 2E 2E 2E 2E 2E 2E 2E 2E 
       00004512 2E 2E 2E 2E 2E 2E 2E 2E 2E 2E 
       0000451C 2E 2E 2E 2E 2E 20 20 20 20 20 
       00004526 20 20 2E 4F 4F 4F 4F 4F 4F 4F 
       00004530 4F 4F 4F 4F 4F 4F 4F 4F 4F 4F 
       0000453A 4F 4F 4F 4F 4F 4F 4F 4F 4F 4F 
       00004544 4F 4F 4F 4F 4F 4F 4F 4F 4F 4F 
       0000454E 4F 4F 4F 4F 4F 
  2741 00004553 20 3D 6F 6F 6F 6F 6F 2A 6F 2A   	DB	" =ooooo*o**.  ........  .**/*oooooooooooooOOO^        ........................................................................       .OOOOOOOOOOOOOO[*****,[OOOOOOOOOOOOOOOOOOO"
       0000455D 2A 2E 20 20 2E 2E 2E 2E 2E 2E 
       00004567 2E 2E 20 20 2E 2A 2A 2F 2A 6F 
       00004571 6F 6F 6F 6F 6F 6F 6F 6F 6F 6F 
       0000457B 6F 6F 4F 4F 4F 5E 20 20 20 20 
       00004585 20 20 20 20 2E 2E 2E 2E 2E 2E 
       0000458F 2E 2E 2E 2E 2E 2E 2E 2E 2E 2E 
       00004599 2E 2E 2E 2E 2E 2E 2E 2E 2E 2E 
       000045A3 2E 2E 2E 2E 2E 2E 2E 2E 2E 2E 
       000045AD 2E 2E 2E 2E 2E 2E 2E 2E 2E 2E 
       000045B7 2E 2E 2E 2E 2E 2E 2E 2E 2E 2E 
       000045C1 2E 2E 2E 2E 2E 2E 2E 2E 2E 2E 
       000045CB 2E 2E 2E 2E 2E 2E 20 20 20 20 
       000045D5 20 20 20 2E 4F 4F 4F 4F 4F 4F 
       000045DF 4F 4F 4F 4F 4F 4F 4F 4F 5B 2A 
       000045E9 2A 2A 2A 2A 2C 5B 4F 4F 4F 4F 
       000045F3 4F 4F 4F 4F 4F 4F 4F 4F 4F 4F 
       000045FD 4F 4F 4F 4F 4F 
  2742 00004602 20 20 6F 6F 6F 6F 6F 2A 2A 2A   	DB	"  ooooo***`         .,**,]ooooooooooooooOOO^        ........................................................................       .OOOOOOOOOOO/**********,*OOOOOOOOOOOOOOOOOOO"
       0000460C 60 20 20 20 20 20 20 20 20 20 
       00004616 2E 2C 2A 2A 2C 5D 6F 6F 6F 6F 
       00004620 6F 6F 6F 6F 6F 6F 6F 6F 6F 6F 
       0000462A 4F 4F 4F 5E 20 20 20 20 20 20 
       00004634 20 20 2E 2E 2E 2E 2E 2E 2E 2E 
       0000463E 2E 2E 2E 2E 2E 2E 2E 2E 2E 2E 
       00004648 2E 2E 2E 2E 2E 2E 2E 2E 2E 2E 
       00004652 2E 2E 2E 2E 2E 2E 2E 2E 2E 2E 
       0000465C 2E 2E 2E 2E 2E 2E 2E 2E 2E 2E 
       00004666 2E 2E 2E 2E 2E 2E 2E 2E 2E 2E 
       00004670 2E 2E 2E 2E 2E 2E 2E 2E 2E 2E 
       0000467A 2E 2E 2E 2E 20 20 20 20 20 20 
       00004684 20 2E 4F 4F 4F 4F 4F 4F 4F 4F 
       0000468E 4F 4F 4F 2F 2A 2A 2A 2A 2A 2A 
       00004698 2A 2A 2A 2A 2C 2A 4F 4F 4F 4F 
       000046A2 4F 4F 4F 4F 4F 4F 4F 4F 4F 4F 
       000046AC 4F 4F 4F 4F 4F 
  2743 000046B1 20 20 2C 4F 6F 6F 6F 6F 6F 6F   	DB	"  ,Oooooooo]*****..******,ooooooooooooooooOOO^        ........................................................................       .OOOOOOOOOO**************`OOOOOOOOOOOOOOOO"
       000046BB 6F 5D 2A 2A 2A 2A 2A 2E 2E 2A 
       000046C5 2A 2A 2A 2A 2A 2C 6F 6F 6F 6F 
       000046CF 6F 6F 6F 6F 6F 6F 6F 6F 6F 6F 
       000046D9 6F 6F 4F 4F 4F 5E 20 20 20 20 
       000046E3 20 20 20 20 2E 2E 2E 2E 2E 2E 
       000046ED 2E 2E 2E 2E 2E 2E 2E 2E 2E 2E 
       000046F7 2E 2E 2E 2E 2E 2E 2E 2E 2E 2E 
       00004701 2E 2E 2E 2E 2E 2E 2E 2E 2E 2E 
       0000470B 2E 2E 2E 2E 2E 2E 2E 2E 2E 2E 
       00004715 2E 2E 2E 2E 2E 2E 2E 2E 2E 2E 
       0000471F 2E 2E 2E 2E 2E 2E 2E 2E 2E 2E 
       00004729 2E 2E 2E 2E 2E 2E 20 20 20 20 
       00004733 20 20 20 2E 4F 4F 4F 4F 4F 4F 
       0000473D 4F 4F 4F 4F 2A 2A 2A 2A 2A 2A 
       00004747 2A 2A 2A 2A 2A 2A 2A 2A 60 4F 
       00004751 4F 4F 4F 4F 4F 4F 4F 4F 4F 4F 
       0000475B 4F 4F 4F 4F 4F 
  2744 00004760 20 20 20 2C 6F 6F 6F 6F 6F 6F   	DB	"   ,ooooooo[[`*]]]],/*/oooooooooooooooooooOO^        ........................................................................       .OOOOOOOOO^****************OOOOOOOOOOOOOOO@"
       0000476A 6F 5B 5B 60 2A 5D 5D 5D 5D 2C 
       00004774 2F 2A 2F 6F 6F 6F 6F 6F 6F 6F 
       0000477E 6F 6F 6F 6F 6F 6F 6F 6F 6F 6F 
       00004788 6F 6F 4F 4F 5E 20 20 20 20 20 
       00004792 20 20 20 2E 2E 2E 2E 2E 2E 2E 
       0000479C 2E 2E 2E 2E 2E 2E 2E 2E 2E 2E 
       000047A6 2E 2E 2E 2E 2E 2E 2E 2E 2E 2E 
       000047B0 2E 2E 2E 2E 2E 2E 2E 2E 2E 2E 
       000047BA 2E 2E 2E 2E 2E 2E 2E 2E 2E 2E 
       000047C4 2E 2E 2E 2E 2E 2E 2E 2E 2E 2E 
       000047CE 2E 2E 2E 2E 2E 2E 2E 2E 2E 2E 
       000047D8 2E 2E 2E 2E 2E 20 20 20 20 20 
       000047E2 20 20 2E 4F 4F 4F 4F 4F 4F 4F 
       000047EC 4F 4F 5E 2A 2A 2A 2A 2A 2A 2A 
       000047F6 2A 2A 2A 2A 2A 2A 2A 2A 2A 4F 
       00004800 4F 4F 4F 4F 4F 4F 4F 4F 4F 4F 
       0000480A 4F 4F 4F 4F 40 
  2745 0000480F 20 20 20 20 2C 6F 6F 6F 6F 6F   	DB	"    ,ooooooooo]]]]]]oooooooooooooooooooooooOO^        ........................................................................       .OOOOOOOOO^****************OOOOOOOOOOOOOO@"
       00004819 6F 6F 6F 6F 5D 5D 5D 5D 5D 5D 
       00004823 6F 6F 6F 6F 6F 6F 6F 6F 6F 6F 
       0000482D 6F 6F 6F 6F 6F 6F 6F 6F 6F 6F 
       00004837 6F 6F 6F 4F 4F 5E 20 20 20 20 
       00004841 20 20 20 20 2E 2E 2E 2E 2E 2E 
       0000484B 2E 2E 2E 2E 2E 2E 2E 2E 2E 2E 
       00004855 2E 2E 2E 2E 2E 2E 2E 2E 2E 2E 
       0000485F 2E 2E 2E 2E 2E 2E 2E 2E 2E 2E 
       00004869 2E 2E 2E 2E 2E 2E 2E 2E 2E 2E 
       00004873 2E 2E 2E 2E 2E 2E 2E 2E 2E 2E 
       0000487D 2E 2E 2E 2E 2E 2E 2E 2E 2E 2E 
       00004887 2E 2E 2E 2E 2E 2E 20 20 20 20 
       00004891 20 20 20 2E 4F 4F 4F 4F 4F 4F 
       0000489B 4F 4F 4F 5E 2A 2A 2A 2A 2A 2A 
       000048A5 2A 2A 2A 2A 2A 2A 2A 2A 2A 2A 
       000048AF 4F 4F 4F 4F 4F 4F 4F 4F 4F 4F 
       000048B9 4F 4F 4F 4F 40 
  2746 000048BE 20 20 20 20 20 2C 4F 6F 6F 6F   	DB	"     ,OoooooooooooooooooooooooooooooooooooOO^        .........................................................................      .OOOOOOOOO***************,OOOOOOOOOOOOOO`  "
       000048C8 6F 6F 6F 6F 6F 6F 6F 6F 6F 6F 
       000048D2 6F 6F 6F 6F 6F 6F 6F 6F 6F 6F 
       000048DC 6F 6F 6F 6F 6F 6F 6F 6F 6F 6F 
       000048E6 6F 6F 4F 4F 5E 20 20 20 20 20 
       000048F0 20 20 20 2E 2E 2E 2E 2E 2E 2E 
       000048FA 2E 2E 2E 2E 2E 2E 2E 2E 2E 2E 
       00004904 2E 2E 2E 2E 2E 2E 2E 2E 2E 2E 
       0000490E 2E 2E 2E 2E 2E 2E 2E 2E 2E 2E 
       00004918 2E 2E 2E 2E 2E 2E 2E 2E 2E 2E 
       00004922 2E 2E 2E 2E 2E 2E 2E 2E 2E 2E 
       0000492C 2E 2E 2E 2E 2E 2E 2E 2E 2E 2E 
       00004936 2E 2E 2E 2E 2E 2E 20 20 20 20 
       00004940 20 20 2E 4F 4F 4F 4F 4F 4F 4F 
       0000494A 4F 4F 2A 2A 2A 2A 2A 2A 2A 2A 
       00004954 2A 2A 2A 2A 2A 2A 2A 2C 4F 4F 
       0000495E 4F 4F 4F 4F 4F 4F 4F 4F 4F 4F 
       00004968 4F 4F 60 20 20 
  2747 0000496D 20 20 20 20 20 20 20 6F 6F 6F   	DB	"       oooooooooooooooooooooooooooooooooooOO^        .........................................................................      .OOOOOOOOOO*************=OOOOOOOOOOOOO/    "
       00004977 6F 6F 6F 6F 6F 6F 6F 6F 6F 6F 
       00004981 6F 6F 6F 6F 6F 6F 6F 6F 6F 6F 
       0000498B 6F 6F 6F 6F 6F 6F 6F 6F 6F 6F 
       00004995 6F 6F 4F 4F 5E 20 20 20 20 20 
       0000499F 20 20 20 2E 2E 2E 2E 2E 2E 2E 
       000049A9 2E 2E 2E 2E 2E 2E 2E 2E 2E 2E 
       000049B3 2E 2E 2E 2E 2E 2E 2E 2E 2E 2E 
       000049BD 2E 2E 2E 2E 2E 2E 2E 2E 2E 2E 
       000049C7 2E 2E 2E 2E 2E 2E 2E 2E 2E 2E 
       000049D1 2E 2E 2E 2E 2E 2E 2E 2E 2E 2E 
       000049DB 2E 2E 2E 2E 2E 2E 2E 2E 2E 2E 
       000049E5 2E 2E 2E 2E 2E 2E 20 20 20 20 
       000049EF 20 20 2E 4F 4F 4F 4F 4F 4F 4F 
       000049F9 4F 4F 4F 2A 2A 2A 2A 2A 2A 2A 
       00004A03 2A 2A 2A 2A 2A 2A 3D 4F 4F 4F 
       00004A0D 4F 4F 4F 4F 4F 4F 4F 4F 4F 4F 
       00004A17 2F 20 20 20 20 
  2748 00004A1C 20 20 20 20 20 20 20 20 3D 6F   	DB	"        =ooooooooooooooooooooooooooooooooOOO^        ........................................................................       .OOOOOOOOOOOO*********,OOOOOOOOOOOOOO^     "
       00004A26 6F 6F 6F 6F 6F 6F 6F 6F 6F 6F 
       00004A30 6F 6F 6F 6F 6F 6F 6F 6F 6F 6F 
       00004A3A 6F 6F 6F 6F 6F 6F 6F 6F 6F 6F 
       00004A44 6F 4F 4F 4F 5E 20 20 20 20 20 
       00004A4E 20 20 20 2E 2E 2E 2E 2E 2E 2E 
       00004A58 2E 2E 2E 2E 2E 2E 2E 2E 2E 2E 
       00004A62 2E 2E 2E 2E 2E 2E 2E 2E 2E 2E 
       00004A6C 2E 2E 2E 2E 2E 2E 2E 2E 2E 2E 
       00004A76 2E 2E 2E 2E 2E 2E 2E 2E 2E 2E 
       00004A80 2E 2E 2E 2E 2E 2E 2E 2E 2E 2E 
       00004A8A 2E 2E 2E 2E 2E 2E 2E 2E 2E 2E 
       00004A94 2E 2E 2E 2E 2E 20 20 20 20 20 
       00004A9E 20 20 2E 4F 4F 4F 4F 4F 4F 4F 
       00004AA8 4F 4F 4F 4F 4F 2A 2A 2A 2A 2A 
       00004AB2 2A 2A 2A 2A 2C 4F 4F 4F 4F 4F 
       00004ABC 4F 4F 4F 4F 4F 4F 4F 4F 4F 5E 
       00004AC6 20 20 20 20 20 
  2749 00004ACB 20 20 20 20 20 20 20 20 20 20   	DB	"          oooooooooooooooooooooooooooooooOOO^        ........................................................................       .OOOOOOOOOOOOOOOO]]OOOOOOOOOOOOOOOO/       "
       00004AD5 6F 6F 6F 6F 6F 6F 6F 6F 6F 6F 
       00004ADF 6F 6F 6F 6F 6F 6F 6F 6F 6F 6F 
       00004AE9 6F 6F 6F 6F 6F 6F 6F 6F 6F 6F 
       00004AF3 6F 4F 4F 4F 5E 20 20 20 20 20 
       00004AFD 20 20 20 2E 2E 2E 2E 2E 2E 2E 
       00004B07 2E 2E 2E 2E 2E 2E 2E 2E 2E 2E 
       00004B11 2E 2E 2E 2E 2E 2E 2E 2E 2E 2E 
       00004B1B 2E 2E 2E 2E 2E 2E 2E 2E 2E 2E 
       00004B25 2E 2E 2E 2E 2E 2E 2E 2E 2E 2E 
       00004B2F 2E 2E 2E 2E 2E 2E 2E 2E 2E 2E 
       00004B39 2E 2E 2E 2E 2E 2E 2E 2E 2E 2E 
       00004B43 2E 2E 2E 2E 2E 20 20 20 20 20 
       00004B4D 20 20 2E 4F 4F 4F 4F 4F 4F 4F 
       00004B57 4F 4F 4F 4F 4F 4F 4F 4F 4F 5D 
       00004B61 5D 4F 4F 4F 4F 4F 4F 4F 4F 4F 
       00004B6B 4F 4F 4F 4F 4F 4F 4F 2F 20 20 
       00004B75 20 20 20 20 20 
  2750 00004B7A 20 20 20 20 20 20 20 20 20 20   	DB	"            oooooooooooooooooooooooooooooOO^        ........................................................................       .OOOOOOOOOOOOOOOOOOOOOOOOOOOOOOOOO/         "
       00004B84 20 20 6F 6F 6F 6F 6F 6F 6F 6F 
       00004B8E 6F 6F 6F 6F 6F 6F 6F 6F 6F 6F 
       00004B98 6F 6F 6F 6F 6F 6F 6F 6F 6F 6F 
       00004BA2 6F 4F 4F 5E 20 20 20 20 20 20 
       00004BAC 20 20 2E 2E 2E 2E 2E 2E 2E 2E 
       00004BB6 2E 2E 2E 2E 2E 2E 2E 2E 2E 2E 
       00004BC0 2E 2E 2E 2E 2E 2E 2E 2E 2E 2E 
       00004BCA 2E 2E 2E 2E 2E 2E 2E 2E 2E 2E 
       00004BD4 2E 2E 2E 2E 2E 2E 2E 2E 2E 2E 
       00004BDE 2E 2E 2E 2E 2E 2E 2E 2E 2E 2E 
       00004BE8 2E 2E 2E 2E 2E 2E 2E 2E 2E 2E 
       00004BF2 2E 2E 2E 2E 20 20 20 20 20 20 
       00004BFC 20 2E 4F 4F 4F 4F 4F 4F 4F 4F 
       00004C06 4F 4F 4F 4F 4F 4F 4F 4F 4F 4F 
       00004C10 4F 4F 4F 4F 4F 4F 4F 4F 4F 4F 
       00004C1A 4F 4F 4F 4F 4F 2F 20 20 20 20 
       00004C24 20 20 20 20 20 
  2751 00004C29 20 20 20 20 20 20 20 20 20 20   	DB	"              OoooooooooooooooooooooooooooOO^        ........................................................................       .OOOOOOOOOOOOOOOOOOOOOOOOOOOOOOO/          "
       00004C33 20 20 20 20 4F 6F 6F 6F 6F 6F 
       00004C3D 6F 6F 6F 6F 6F 6F 6F 6F 6F 6F 
       00004C47 6F 6F 6F 6F 6F 6F 6F 6F 6F 6F 
       00004C51 6F 6F 4F 4F 5E 20 20 20 20 20 
       00004C5B 20 20 20 2E 2E 2E 2E 2E 2E 2E 
       00004C65 2E 2E 2E 2E 2E 2E 2E 2E 2E 2E 
       00004C6F 2E 2E 2E 2E 2E 2E 2E 2E 2E 2E 
       00004C79 2E 2E 2E 2E 2E 2E 2E 2E 2E 2E 
       00004C83 2E 2E 2E 2E 2E 2E 2E 2E 2E 2E 
       00004C8D 2E 2E 2E 2E 2E 2E 2E 2E 2E 2E 
       00004C97 2E 2E 2E 2E 2E 2E 2E 2E 2E 2E 
       00004CA1 2E 2E 2E 2E 2E 20 20 20 20 20 
       00004CAB 20 20 2E 4F 4F 4F 4F 4F 4F 4F 
       00004CB5 4F 4F 4F 4F 4F 4F 4F 4F 4F 4F 
       00004CBF 4F 4F 4F 4F 4F 4F 4F 4F 4F 4F 
       00004CC9 4F 4F 4F 4F 2F 20 20 20 20 20 
       00004CD3 20 20 20 20 20 
  2752 00004CD8 20 20 20 20 20 20 20 20 20 20   	DB	"                ,oooooooooooooooooooooooooOO^       .........................................................................       .OOOOOOOOOOOOOOOOOOOOOOOOOOOOO`            "
       00004CE2 20 20 20 20 20 20 2C 6F 6F 6F 
       00004CEC 6F 6F 6F 6F 6F 6F 6F 6F 6F 6F 
       00004CF6 6F 6F 6F 6F 6F 6F 6F 6F 6F 6F 
       00004D00 6F 6F 4F 4F 5E 20 20 20 20 20 
       00004D0A 20 20 2E 2E 2E 2E 2E 2E 2E 2E 
       00004D14 2E 2E 2E 2E 2E 2E 2E 2E 2E 2E 
       00004D1E 2E 2E 2E 2E 2E 2E 2E 2E 2E 2E 
       00004D28 2E 2E 2E 2E 2E 2E 2E 2E 2E 2E 
       00004D32 2E 2E 2E 2E 2E 2E 2E 2E 2E 2E 
       00004D3C 2E 2E 2E 2E 2E 2E 2E 2E 2E 2E 
       00004D46 2E 2E 2E 2E 2E 2E 2E 2E 2E 2E 
       00004D50 2E 2E 2E 2E 2E 20 20 20 20 20 
       00004D5A 20 20 2E 4F 4F 4F 4F 4F 4F 4F 
       00004D64 4F 4F 4F 4F 4F 4F 4F 4F 4F 4F 
       00004D6E 4F 4F 4F 4F 4F 4F 4F 4F 4F 4F 
       00004D78 4F 4F 60 20 20 20 20 20 20 20 
       00004D82 20 20 20 20 20 
  2753 00004D87 20 20 20 20 20 20 20 20 20 20   	DB	"                   ,OoooooooooooooooooooooOO^       .........................................................................       .OOOOOOOOOOOOOOOOOOOOOOOOO/`               "
       00004D91 20 20 20 20 20 20 20 20 20 2C 
       00004D9B 4F 6F 6F 6F 6F 6F 6F 6F 6F 6F 
       00004DA5 6F 6F 6F 6F 6F 6F 6F 6F 6F 6F 
       00004DAF 6F 6F 4F 4F 5E 20 20 20 20 20 
       00004DB9 20 20 2E 2E 2E 2E 2E 2E 2E 2E 
       00004DC3 2E 2E 2E 2E 2E 2E 2E 2E 2E 2E 
       00004DCD 2E 2E 2E 2E 2E 2E 2E 2E 2E 2E 
       00004DD7 2E 2E 2E 2E 2E 2E 2E 2E 2E 2E 
       00004DE1 2E 2E 2E 2E 2E 2E 2E 2E 2E 2E 
       00004DEB 2E 2E 2E 2E 2E 2E 2E 2E 2E 2E 
       00004DF5 2E 2E 2E 2E 2E 2E 2E 2E 2E 2E 
       00004DFF 2E 2E 2E 2E 2E 20 20 20 20 20 
       00004E09 20 20 2E 4F 4F 4F 4F 4F 4F 4F 
       00004E13 4F 4F 4F 4F 4F 4F 4F 4F 4F 4F 
       00004E1D 4F 4F 4F 4F 4F 4F 4F 4F 2F 60 
       00004E27 20 20 20 20 20 20 20 20 20 20 
       00004E31 20 20 20 20 20 
  2754 00004E36 20 20 20 20 20 20 20 20 20 20   	DB	"                       ,Ooooo/oooooooooooOOO^       ......................................................................... .     .OOOOOOOOOOOOOOOOOOOOO/`                   "
       00004E40 20 20 20 20 20 20 20 20 20 20 
       00004E4A 20 20 20 2C 4F 6F 6F 6F 6F 2F 
       00004E54 6F 6F 6F 6F 6F 6F 6F 6F 6F 6F 
       00004E5E 6F 4F 4F 4F 5E 20 20 20 20 20 
       00004E68 20 20 2E 2E 2E 2E 2E 2E 2E 2E 
       00004E72 2E 2E 2E 2E 2E 2E 2E 2E 2E 2E 
       00004E7C 2E 2E 2E 2E 2E 2E 2E 2E 2E 2E 
       00004E86 2E 2E 2E 2E 2E 2E 2E 2E 2E 2E 
       00004E90 2E 2E 2E 2E 2E 2E 2E 2E 2E 2E 
       00004E9A 2E 2E 2E 2E 2E 2E 2E 2E 2E 2E 
       00004EA4 2E 2E 2E 2E 2E 2E 2E 2E 2E 2E 
       00004EAE 2E 2E 2E 2E 2E 20 2E 20 20 20 
       00004EB8 20 20 2E 4F 4F 4F 4F 4F 4F 4F 
       00004EC2 4F 4F 4F 4F 4F 4F 4F 4F 4F 4F 
       00004ECC 4F 4F 4F 4F 2F 60 20 20 20 20 
       00004ED6 20 20 20 20 20 20 20 20 20 20 
       00004EE0 20 20 20 20 20 
  2755 00004EE5 20 20 20 20 20 20 20 20 20 20   	DB	"                            ,[OoooooooooooOO^     . .........................................................................       .OOOOOOOOOOOOOOO/[`                        "
       00004EEF 20 20 20 20 20 20 20 20 20 20 
       00004EF9 20 20 20 20 20 20 20 20 2C 5B 
       00004F03 4F 6F 6F 6F 6F 6F 6F 6F 6F 6F 
       00004F0D 6F 6F 4F 4F 5E 20 20 20 20 20 
       00004F17 2E 20 2E 2E 2E 2E 2E 2E 2E 2E 
       00004F21 2E 2E 2E 2E 2E 2E 2E 2E 2E 2E 
       00004F2B 2E 2E 2E 2E 2E 2E 2E 2E 2E 2E 
       00004F35 2E 2E 2E 2E 2E 2E 2E 2E 2E 2E 
       00004F3F 2E 2E 2E 2E 2E 2E 2E 2E 2E 2E 
       00004F49 2E 2E 2E 2E 2E 2E 2E 2E 2E 2E 
       00004F53 2E 2E 2E 2E 2E 2E 2E 2E 2E 2E 
       00004F5D 2E 2E 2E 2E 2E 20 20 20 20 20 
       00004F67 20 20 2E 4F 4F 4F 4F 4F 4F 4F 
       00004F71 4F 4F 4F 4F 4F 4F 4F 4F 2F 5B 
       00004F7B 60 20 20 20 20 20 20 20 20 20 
       00004F85 20 20 20 20 20 20 20 20 20 20 
       00004F8F 20 20 20 20 20 
  2756 00004F94 00 00 00 00 00 00 00 00 00 00   	RESB	350
       00004F9E 00 00 00 00 00 00 00 00 00 00 
       00004FA8 00 00 00 00 00 00 00 00 00 00 
       00004FB2 00 00 00 00 00 00 00 00 00 00 
       00004FBC 00 00 00 00 00 00 00 00 00 00 
       00004FC6 00 00 00 00 00 00 00 00 00 00 
       00004FD0 00 00 00 00 00 00 00 00 00 00 
       00004FDA 00 00 00 00 00 00 00 00 00 00 
       00004FE4 00 00 00 00 00 00 00 00 00 00 
       00004FEE 00 00 00 00 00 00 00 00 00 00 
       00004FF8 00 00 00 00 00 00 00 00 00 00 
       00005002 00 00 00 00 00 00 00 00 00 00 
       0000500C 00 00 00 00 00 00 00 00 00 00 
       00005016 00 00 00 00 00 00 00 00 00 00 
       00005020 00 00 00 00 00 00 00 00 00 00 
       0000502A 00 00 00 00 00 00 00 00 00 00 
       00005034 00 00 00 00 00 00 00 00 00 00 
       0000503E 00 00 00 00 00 00 00 00 00 00 
       00005048 00 00 00 00 00 00 00 00 00 00 
       00005052 00 00 00 00 00 00 00 00 00 00 
       0000505C 00 00 00 00 00 00 00 00 00 00 
       00005066 00 00 00 00 00 00 00 00 00 00 
       00005070 00 00 00 00 00 00 00 00 00 00 
       0000507A 00 00 00 00 00 00 00 00 00 00 
       00005084 00 00 00 00 00 00 00 00 00 00 
       0000508E 00 00 00 00 00 00 00 00 00 00 
       00005098 00 00 00 00 00 00 00 00 00 00 
       000050A2 00 00 00 00 00 00 00 00 00 00 
       000050AC 00 00 00 00 00 00 00 00 00 00 
       000050B6 00 00 00 00 00 00 00 00 00 00 
       000050C0 00 00 00 00 00 00 00 00 00 00 
       000050CA 00 00 00 00 00 00 00 00 00 00 
       000050D4 00 00 00 00 00 00 00 00 00 00 
       000050DE 00 00 00 00 00 00 00 00 00 00 
       000050E8 00 00 00 00 00 00 00 00 00 00 
  2757                                          [SECTION .text]
  2758 00001D5E                                 	GLOBAL	_make_snake
  2759 00001D5E                                 _make_snake:
  2760 00001D5E 55                              	PUSH	EBP
  2761 00001D5F 89 E5                           	MOV	EBP,ESP
  2762 00001D61 57                              	PUSH	EDI
  2763 00001D62 56                              	PUSH	ESI
  2764 00001D63 53                              	PUSH	EBX
  2765 00001D64 51                              	PUSH	ECX
  2766 00001D65 51                              	PUSH	ECX
  2767 00001D66 31 C9                           	XOR	ECX,ECX
  2768 00001D68 8B 45 08                        	MOV	EAX,DWORD [8+EBP]
  2769 00001D6B 8B 7D 10                        	MOV	EDI,DWORD [16+EBP]
  2770 00001D6E C7 45 F0 00000000               	MOV	DWORD [-16+EBP],0
  2771 00001D75 8B 70 04                        	MOV	ESI,DWORD [4+EAX]
  2772 00001D78 8B 18                           	MOV	EBX,DWORD [EAX]
  2773 00001D7A                                 L315:
  2774 00001D7A 31 D2                           	XOR	EDX,EDX
  2775 00001D7C                                 L314:
  2776 00001D7C 8B 45 F0                        	MOV	EAX,DWORD [-16+EBP]
  2777 00001D7F 8A 84 02 [0000120E]             	MOV	AL,BYTE [_table.5+EDX+EAX*1]
  2778 00001D86 88 45 EF                        	MOV	BYTE [-17+EBP],AL
  2779 00001D89 3C 40                           	CMP	AL,64
  2780 00001D8B 74 71                           	JE	L320
  2781 00001D8D 80 7D EF 4F                     	CMP	BYTE [-17+EBP],79
  2782 00001D91 74 5A                           	JE	L321
  2783 00001D93 80 7D EF 6F                     	CMP	BYTE [-17+EBP],111
  2784 00001D97 74 43                           	JE	L322
  2785 00001D99 80 7D EF 2E                     	CMP	BYTE [-17+EBP],46
  2786 00001D9D 74 2C                           	JE	L323
  2787 00001D9F 8D 04 39                        	LEA	EAX,DWORD [ECX+EDI*1]
  2788 00001DA2 0F AF C6                        	IMUL	EAX,ESI
  2789 00001DA5 01 D0                           	ADD	EAX,EDX
  2790 00001DA7 03 45 0C                        	ADD	EAX,DWORD [12+EBP]
  2791 00001DAA C6 04 18 03                     	MOV	BYTE [EAX+EBX*1],3
  2792 00001DAE                                 L304:
  2793 00001DAE 42                              	INC	EDX
  2794 00001DAF 81 FA 000000AF                  	CMP	EDX,175
  2795 00001DB5 7C C5                           	JL	L314
  2796 00001DB7 41                              	INC	ECX
  2797 00001DB8 81 45 F0 000000AF               	ADD	DWORD [-16+EBP],175
  2798 00001DBF 83 F9 5C                        	CMP	ECX,92
  2799 00001DC2 7C B6                           	JL	L315
  2800 00001DC4 58                              	POP	EAX
  2801 00001DC5 5A                              	POP	EDX
  2802 00001DC6 5B                              	POP	EBX
  2803 00001DC7 5E                              	POP	ESI
  2804 00001DC8 5F                              	POP	EDI
  2805 00001DC9 5D                              	POP	EBP
  2806 00001DCA C3                              	RET
  2807 00001DCB                                 L323:
  2808 00001DCB 8D 04 39                        	LEA	EAX,DWORD [ECX+EDI*1]
  2809 00001DCE 0F AF C6                        	IMUL	EAX,ESI
  2810 00001DD1 01 D0                           	ADD	EAX,EDX
  2811 00001DD3 03 45 0C                        	ADD	EAX,DWORD [12+EBP]
  2812 00001DD6 C6 04 18 0B                     	MOV	BYTE [EAX+EBX*1],11
  2813 00001DDA EB D2                           	JMP	L304
  2814 00001DDC                                 L322:
  2815 00001DDC 8D 04 39                        	LEA	EAX,DWORD [ECX+EDI*1]
  2816 00001DDF 0F AF C6                        	IMUL	EAX,ESI
  2817 00001DE2 01 D0                           	ADD	EAX,EDX
  2818 00001DE4 03 45 0C                        	ADD	EAX,DWORD [12+EBP]
  2819 00001DE7 C6 04 18 06                     	MOV	BYTE [EAX+EBX*1],6
  2820 00001DEB EB C1                           	JMP	L304
  2821 00001DED                                 L321:
  2822 00001DED 8D 04 39                        	LEA	EAX,DWORD [ECX+EDI*1]
  2823 00001DF0 0F AF C6                        	IMUL	EAX,ESI
  2824 00001DF3 01 D0                           	ADD	EAX,EDX
  2825 00001DF5 03 45 0C                        	ADD	EAX,DWORD [12+EBP]
  2826 00001DF8 C6 04 18 04                     	MOV	BYTE [EAX+EBX*1],4
  2827 00001DFC EB B0                           	JMP	L304
  2828 00001DFE                                 L320:
  2829 00001DFE 8D 04 39                        	LEA	EAX,DWORD [ECX+EDI*1]
  2830 00001E01 0F AF C6                        	IMUL	EAX,ESI
  2831 00001E04 01 D0                           	ADD	EAX,EDX
  2832 00001E06 03 45 0C                        	ADD	EAX,DWORD [12+EBP]
  2833 00001E09 C6 04 18 09                     	MOV	BYTE [EAX+EBX*1],9
  2834 00001E0D EB 9F                           	JMP	L304
  2835                                          [SECTION .data]
  2836 000050F2                                 LC16:
  2837 000050F2 45 72 72 6F 72 21 20 50 6C 65   	DB	"Error! Please Enter Again!",0x00
       000050FC 61 73 65 20 45 6E 74 65 72 20 
       00005106 41 67 61 69 6E 21 00 
  2838 0000510D 00 00 00 00 00 00 00 00 00 00   	RESB	13
       00005117 00 00 00 
  2839                                          [SECTION .text]
  2840 00001E0F                                 	GLOBAL	_ani_err
  2841 00001E0F                                 _ani_err:
  2842 00001E0F 55                              	PUSH	EBP
  2843 00001E10 B9 0000001B                     	MOV	ECX,27
  2844 00001E15 89 E5                           	MOV	EBP,ESP
  2845 00001E17 31 C0                           	XOR	EAX,EAX
  2846 00001E19 57                              	PUSH	EDI
  2847 00001E1A 56                              	PUSH	ESI
  2848 00001E1B 8D 7D C4                        	LEA	EDI,DWORD [-60+EBP]
  2849 00001E1E 53                              	PUSH	EBX
  2850 00001E1F BE [000050F2]                   	MOV	ESI,LC16
  2851 00001E24 FC                              	CLD
  2852 00001E25 83 EC 30                        	SUB	ESP,48
  2853 00001E28 8D 55 C4                        	LEA	EDX,DWORD [-60+EBP]
  2854 00001E2B F3                              	REP
  2855 00001E2C A4                              	MOVSB
  2856 00001E2D 8D 7D DF                        	LEA	EDI,DWORD [-33+EBP]
  2857 00001E30 B9 0000000D                     	MOV	ECX,13
  2858 00001E35 8B 5D 08                        	MOV	EBX,DWORD [8+EBP]
  2859 00001E38 F3                              	REP
  2860 00001E39 AA                              	STOSB
  2861 00001E3A 89 D7                           	MOV	EDI,EDX
  2862 00001E3C 83 C9 FF                        	OR	ECX,-1
  2863 00001E3F F2                              	REPNE
  2864 00001E40 AE                              	SCASB
  2865 00001E41 F7 D1                           	NOT	ECX
  2866 00001E43 49                              	DEC	ECX
  2867 00001E44 51                              	PUSH	ECX
  2868 00001E45 52                              	PUSH	EDX
  2869 00001E46 6A 07                           	PUSH	7
  2870 00001E48 6A 01                           	PUSH	1
  2871 00001E4A 68 00000168                     	PUSH	360
  2872 00001E4F 6A 1E                           	PUSH	30
  2873 00001E51 53                              	PUSH	EBX
  2874 00001E52 E8 [00000000]                   	CALL	_putfonts8_asc_sht
  2875 00001E57 68 0000014A                     	PUSH	330
  2876 00001E5C 68 0000012C                     	PUSH	300
  2877 00001E61 68 00000136                     	PUSH	310
  2878 00001E66 6A 26                           	PUSH	38
  2879 00001E68 6A 07                           	PUSH	7
  2880 00001E6A FF 73 04                        	PUSH	DWORD [4+EBX]
  2881 00001E6D FF 33                           	PUSH	DWORD [EBX]
  2882 00001E6F E8 [00000000]                   	CALL	_boxfill8
  2883 00001E74 8D 65 F4                        	LEA	ESP,DWORD [-12+EBP]
  2884 00001E77 5B                              	POP	EBX
  2885 00001E78 5E                              	POP	ESI
  2886 00001E79 5F                              	POP	EDI
  2887 00001E7A 5D                              	POP	EBP
  2888 00001E7B C3                              	RET
  2889 00001E7C                                 	GLOBAL	_ani_pas
  2890 00001E7C                                 _ani_pas:
  2891 00001E7C 55                              	PUSH	EBP
  2892 00001E7D 89 E5                           	MOV	EBP,ESP
  2893 00001E7F 5D                              	POP	EBP
  2894 00001E80 C3                              	RET
  2895 00001E81                                 	GLOBAL	_make_pause
  2896 00001E81                                 _make_pause:
  2897 00001E81 55                              	PUSH	EBP
  2898 00001E82 89 E5                           	MOV	EBP,ESP
  2899 00001E84 57                              	PUSH	EDI
  2900 00001E85 56                              	PUSH	ESI
  2901 00001E86 53                              	PUSH	EBX
  2902 00001E87 53                              	PUSH	EBX
  2903 00001E88 53                              	PUSH	EBX
  2904 00001E89 8B 45 08                        	MOV	EAX,DWORD [8+EBP]
  2905 00001E8C 8B 40 04                        	MOV	EAX,DWORD [4+EAX]
  2906 00001E8F 89 45 F0                        	MOV	DWORD [-16+EBP],EAX
  2907 00001E92 8B 45 08                        	MOV	EAX,DWORD [8+EBP]
  2908 00001E95 8B 58 08                        	MOV	EBX,DWORD [8+EAX]
  2909 00001E98 53                              	PUSH	EBX
  2910 00001E99 FF 75 F0                        	PUSH	DWORD [-16+EBP]
  2911 00001E9C 6A 00                           	PUSH	0
  2912 00001E9E 6A 00                           	PUSH	0
  2913 00001EA0 6A 00                           	PUSH	0
  2914 00001EA2 FF 75 F0                        	PUSH	DWORD [-16+EBP]
  2915 00001EA5 FF 30                           	PUSH	DWORD [EAX]
  2916 00001EA7 E8 [00000000]                   	CALL	_boxfill8
  2917 00001EAC 8B 45 F0                        	MOV	EAX,DWORD [-16+EBP]
  2918 00001EAF B9 00000002                     	MOV	ECX,2
  2919 00001EB4 6A 04                           	PUSH	4
  2920 00001EB6 99                              	CDQ
  2921 00001EB7 F7 F9                           	IDIV	ECX
  2922 00001EB9 50                              	PUSH	EAX
  2923 00001EBA 89 C6                           	MOV	ESI,EAX
  2924 00001EBC 89 D8                           	MOV	EAX,EBX
  2925 00001EBE 99                              	CDQ
  2926 00001EBF F7 F9                           	IDIV	ECX
  2927 00001EC1 50                              	PUSH	EAX
  2928 00001EC2 89 C7                           	MOV	EDI,EAX
  2929 00001EC4 56                              	PUSH	ESI
  2930 00001EC5 8B 45 08                        	MOV	EAX,DWORD [8+EBP]
  2931 00001EC8 53                              	PUSH	EBX
  2932 00001EC9 8D 5F 1E                        	LEA	EBX,DWORD [30+EDI]
  2933 00001ECC FF 75 F0                        	PUSH	DWORD [-16+EBP]
  2934 00001ECF FF 30                           	PUSH	DWORD [EAX]
  2935 00001ED1 83 EF 1E                        	SUB	EDI,30
  2936 00001ED4 E8 [00000000]                   	CALL	_draw_cycle
  2937 00001ED9 83 C4 38                        	ADD	ESP,56
  2938 00001EDC 8D 46 F6                        	LEA	EAX,DWORD [-10+ESI]
  2939 00001EDF 89 7D EC                        	MOV	DWORD [-20+EBP],EDI
  2940 00001EE2 53                              	PUSH	EBX
  2941 00001EE3 50                              	PUSH	EAX
  2942 00001EE4 8D 46 E7                        	LEA	EAX,DWORD [-25+ESI]
  2943 00001EE7 57                              	PUSH	EDI
  2944 00001EE8 50                              	PUSH	EAX
  2945 00001EE9 8B 45 08                        	MOV	EAX,DWORD [8+EBP]
  2946 00001EEC 6A 07                           	PUSH	7
  2947 00001EEE FF 75 F0                        	PUSH	DWORD [-16+EBP]
  2948 00001EF1 FF 30                           	PUSH	DWORD [EAX]
  2949 00001EF3 E8 [00000000]                   	CALL	_boxfill8
  2950 00001EF8 8D 56 19                        	LEA	EDX,DWORD [25+ESI]
  2951 00001EFB 53                              	PUSH	EBX
  2952 00001EFC 8D 46 0A                        	LEA	EAX,DWORD [10+ESI]
  2953 00001EFF 52                              	PUSH	EDX
  2954 00001F00 FF 75 EC                        	PUSH	DWORD [-20+EBP]
  2955 00001F03 50                              	PUSH	EAX
  2956 00001F04 8B 45 08                        	MOV	EAX,DWORD [8+EBP]
  2957 00001F07 6A 07                           	PUSH	7
  2958 00001F09 FF 75 F0                        	PUSH	DWORD [-16+EBP]
  2959 00001F0C FF 30                           	PUSH	DWORD [EAX]
  2960 00001F0E E8 [00000000]                   	CALL	_boxfill8
  2961 00001F13 8D 65 F4                        	LEA	ESP,DWORD [-12+EBP]
  2962 00001F16 5B                              	POP	EBX
  2963 00001F17 5E                              	POP	ESI
  2964 00001F18 5F                              	POP	EDI
  2965 00001F19 5D                              	POP	EBP
  2966 00001F1A C3                              	RET
  2967                                          [SECTION .data]
  2968 0000511A                                 _table.6:
  2969 0000511A 20 20 20 20 20 20 20 20 20 2E   	DB	"         .....................................................................................................................................          ",0x00
       00005124 2E 2E 2E 2E 2E 2E 2E 2E 2E 2E 
       0000512E 2E 2E 2E 2E 2E 2E 2E 2E 2E 2E 
       00005138 2E 2E 2E 2E 2E 2E 2E 2E 2E 2E 
       00005142 2E 2E 2E 2E 2E 2E 2E 2E 2E 2E 
       0000514C 2E 2E 2E 2E 2E 2E 2E 2E 2E 2E 
       00005156 2E 2E 2E 2E 2E 2E 2E 2E 2E 2E 
       00005160 2E 2E 2E 2E 2E 2E 2E 2E 2E 2E 
       0000516A 2E 2E 2E 2E 2E 2E 2E 2E 2E 2E 
       00005174 2E 2E 2E 2E 2E 2E 2E 2E 2E 2E 
       0000517E 2E 2E 2E 2E 2E 2E 2E 2E 2E 2E 
       00005188 2E 2E 2E 2E 2E 2E 2E 2E 2E 2E 
       00005192 2E 2E 2E 2E 2E 2E 2E 2E 2E 2E 
       0000519C 2E 2E 2E 2E 2E 2E 2E 2E 2E 2E 
       000051A6 2E 2E 20 20 20 20 20 20 20 20 
       000051B0 20 20 00 
  2970 000051B3 00                              	RESB	1
  2971 000051B4 20 20 20 20 20 2C 2A 2A 2A 2A   	DB	"     ,*******************************************************************************************************************************************`      ",0x00
       000051BE 2A 2A 2A 2A 2A 2A 2A 2A 2A 2A 
       000051C8 2A 2A 2A 2A 2A 2A 2A 2A 2A 2A 
       000051D2 2A 2A 2A 2A 2A 2A 2A 2A 2A 2A 
       000051DC 2A 2A 2A 2A 2A 2A 2A 2A 2A 2A 
       000051E6 2A 2A 2A 2A 2A 2A 2A 2A 2A 2A 
       000051F0 2A 2A 2A 2A 2A 2A 2A 2A 2A 2A 
       000051FA 2A 2A 2A 2A 2A 2A 2A 2A 2A 2A 
       00005204 2A 2A 2A 2A 2A 2A 2A 2A 2A 2A 
       0000520E 2A 2A 2A 2A 2A 2A 2A 2A 2A 2A 
       00005218 2A 2A 2A 2A 2A 2A 2A 2A 2A 2A 
       00005222 2A 2A 2A 2A 2A 2A 2A 2A 2A 2A 
       0000522C 2A 2A 2A 2A 2A 2A 2A 2A 2A 2A 
       00005236 2A 2A 2A 2A 2A 2A 2A 2A 2A 2A 
       00005240 2A 2A 2A 2A 2A 60 20 20 20 20 
       0000524A 20 20 00 
  2972 0000524D 00                              	RESB	1
  2973 0000524E 20 20 20 2F 4F 6F 6F 6F 4F 4F   	DB	"   /OoooOOOOOOOOOOOOOOOOOOOOOOOOOOOOOOOOOOOOOOOOOOOOOOOOOOOOOOOOOOOOOOOOOOOOOOOOOOOOOOOOOOOOOOOOOOOOOOOOOOOOOOOOOOOOOOOOOOOOOOOOOOOOOOOOOOOOOOOoooO    ",0x00
       00005258 4F 4F 4F 4F 4F 4F 4F 4F 4F 4F 
       00005262 4F 4F 4F 4F 4F 4F 4F 4F 4F 4F 
       0000526C 4F 4F 4F 4F 4F 4F 4F 4F 4F 4F 
       00005276 4F 4F 4F 4F 4F 4F 4F 4F 4F 4F 
       00005280 4F 4F 4F 4F 4F 4F 4F 4F 4F 4F 
       0000528A 4F 4F 4F 4F 4F 4F 4F 4F 4F 4F 
       00005294 4F 4F 4F 4F 4F 4F 4F 4F 4F 4F 
       0000529E 4F 4F 4F 4F 4F 4F 4F 4F 4F 4F 
       000052A8 4F 4F 4F 4F 4F 4F 4F 4F 4F 4F 
       000052B2 4F 4F 4F 4F 4F 4F 4F 4F 4F 4F 
       000052BC 4F 4F 4F 4F 4F 4F 4F 4F 4F 4F 
       000052C6 4F 4F 4F 4F 4F 4F 4F 4F 4F 4F 
       000052D0 4F 4F 4F 4F 4F 4F 4F 4F 4F 4F 
       000052DA 4F 4F 4F 6F 6F 6F 4F 20 20 20 
       000052E4 20 00 
  2974 000052E6 00 00                           	RESB	2
  2975 000052E8 20 2E 4F 4F 4F 4F 4F 4F 4F 4F   	DB	" .OOOOOOOOOOOOOOOOOOOOOOOOOOOOOOOOOOOOOOOOOOOOOOOOOOOOOOOOOOOOOOOOOOOOOOOOOOOOOOOOOOOOOOOOOOOOOOOOOOOOOOOOOOOOOOOOOOOOOOOOOOOOOOOOOOOOOOOOOOOOOOOOOOO.  ",0x00
       000052F2 4F 4F 4F 4F 4F 4F 4F 4F 4F 4F 
       000052FC 4F 4F 4F 4F 4F 4F 4F 4F 4F 4F 
       00005306 4F 4F 4F 4F 4F 4F 4F 4F 4F 4F 
       00005310 4F 4F 4F 4F 4F 4F 4F 4F 4F 4F 
       0000531A 4F 4F 4F 4F 4F 4F 4F 4F 4F 4F 
       00005324 4F 4F 4F 4F 4F 4F 4F 4F 4F 4F 
       0000532E 4F 4F 4F 4F 4F 4F 4F 4F 4F 4F 
       00005338 4F 4F 4F 4F 4F 4F 4F 4F 4F 4F 
       00005342 4F 4F 4F 4F 4F 4F 4F 4F 4F 4F 
       0000534C 4F 4F 4F 4F 4F 4F 4F 4F 4F 4F 
       00005356 4F 4F 4F 4F 4F 4F 4F 4F 4F 4F 
       00005360 4F 4F 4F 4F 4F 4F 4F 4F 4F 4F 
       0000536A 4F 4F 4F 4F 4F 4F 4F 4F 4F 4F 
       00005374 4F 4F 4F 4F 4F 4F 4F 4F 4F 2E 
       0000537E 20 20 00 
  2976 00005381 00                              	RESB	1
  2977 00005382 20 4F 4F 4F 4F 4F 4F 4F 4F 4F   	DB	" OOOOOOOOOOOOOOOOOOOOOOOOOOOOOOOOOOOOOOOOOOOOOOOOOOOOOOOOOOOOOOOOOOOOOOOOOOOOOOOOOOOOOOOOOOOOOOOOOOOOOOOOOOOOOOOOOOOOOOOOOOOOOOOOOOOOOOOOOOOOOOOOOOOOO  ",0x00
       0000538C 4F 4F 4F 4F 4F 4F 4F 4F 4F 4F 
       00005396 4F 4F 4F 4F 4F 4F 4F 4F 4F 4F 
       000053A0 4F 4F 4F 4F 4F 4F 4F 4F 4F 4F 
       000053AA 4F 4F 4F 4F 4F 4F 4F 4F 4F 4F 
       000053B4 4F 4F 4F 4F 4F 4F 4F 4F 4F 4F 
       000053BE 4F 4F 4F 4F 4F 4F 4F 4F 4F 4F 
       000053C8 4F 4F 4F 4F 4F 4F 4F 4F 4F 4F 
       000053D2 4F 4F 4F 4F 4F 4F 4F 4F 4F 4F 
       000053DC 4F 4F 4F 4F 4F 4F 4F 4F 4F 4F 
       000053E6 4F 4F 4F 4F 4F 4F 4F 4F 4F 4F 
       000053F0 4F 4F 4F 4F 4F 4F 4F 4F 4F 4F 
       000053FA 4F 4F 4F 4F 4F 4F 4F 4F 4F 4F 
       00005404 4F 4F 4F 4F 4F 4F 4F 4F 4F 4F 
       0000540E 4F 4F 4F 4F 4F 4F 4F 4F 4F 4F 
       00005418 20 20 00 
  2978 0000541B 00                              	RESB	1
  2979 0000541C 2C 4F 4F 4F 4F 4F 4F 4F 4F 4F   	DB	",OOOOOOOOOOOOOOOOOOOOOOOOOOOOOOOOOOOOOOOOOOOOOOOOOOOOOOOOOOOOOOOOOOOOOOOOOOOOOOOOOOOOOOOOOOOOOOOOOOOOOOOOOOOOOOOOOOOOOOOOOOOOOOOOOOOOOOOOOOOOOOOOOOO@@^ ",0x00
       00005426 4F 4F 4F 4F 4F 4F 4F 4F 4F 4F 
       00005430 4F 4F 4F 4F 4F 4F 4F 4F 4F 4F 
       0000543A 4F 4F 4F 4F 4F 4F 4F 4F 4F 4F 
       00005444 4F 4F 4F 4F 4F 4F 4F 4F 4F 4F 
       0000544E 4F 4F 4F 4F 4F 4F 4F 4F 4F 4F 
       00005458 4F 4F 4F 4F 4F 4F 4F 4F 4F 4F 
       00005462 4F 4F 4F 4F 4F 4F 4F 4F 4F 4F 
       0000546C 4F 4F 4F 4F 4F 4F 4F 4F 4F 4F 
       00005476 4F 4F 4F 4F 4F 4F 4F 4F 4F 4F 
       00005480 4F 4F 4F 4F 4F 4F 4F 4F 4F 4F 
       0000548A 4F 4F 4F 4F 4F 4F 4F 4F 4F 4F 
       00005494 4F 4F 4F 4F 4F 4F 4F 4F 4F 4F 
       0000549E 4F 4F 4F 4F 4F 4F 4F 4F 4F 4F 
       000054A8 4F 4F 4F 4F 4F 4F 4F 4F 40 40 
       000054B2 5E 20 00 
  2980 000054B5 00                              	RESB	1
  2981 000054B6 3D 4F 40 4F 4F 4F 4F 4F 4F 4F   	DB	"=O@OOOOOOOOOOOOOOOOOOOOOOOOOOOOOOOOOOOOOOOOOOOOOOOOOOOOO@@@OOOOOOO@@@OOOOOOOO@@@OOO@@@OOO@@@OOOOOOOOOOOOOOO@@@@OO@OOOOOOOOOOOOOOOOOOOOOOOOOOOOOOOOOO@@^ ",0x00
       000054C0 4F 4F 4F 4F 4F 4F 4F 4F 4F 4F 
       000054CA 4F 4F 4F 4F 4F 4F 4F 4F 4F 4F 
       000054D4 4F 4F 4F 4F 4F 4F 4F 4F 4F 4F 
       000054DE 4F 4F 4F 4F 4F 4F 4F 4F 4F 4F 
       000054E8 4F 4F 4F 4F 4F 4F 40 40 40 4F 
       000054F2 4F 4F 4F 4F 4F 4F 40 40 40 4F 
       000054FC 4F 4F 4F 4F 4F 4F 4F 40 40 40 
       00005506 4F 4F 4F 40 40 40 4F 4F 4F 40 
       00005510 40 40 4F 4F 4F 4F 4F 4F 4F 4F 
       0000551A 4F 4F 4F 4F 4F 4F 4F 40 40 40 
       00005524 40 4F 4F 40 4F 4F 4F 4F 4F 4F 
       0000552E 4F 4F 4F 4F 4F 4F 4F 4F 4F 4F 
       00005538 4F 4F 4F 4F 4F 4F 4F 4F 4F 4F 
       00005542 4F 4F 4F 4F 4F 4F 4F 4F 40 40 
       0000554C 5E 20 00 
  2982 0000554F 00                              	RESB	1
  2983 00005550 3D 4F 40 40 4F 4F 4F 4F 4F 4F   	DB	"=O@@OOOOOOOOOOOOOOOOOOOOOOOOOOOOO@@@@@@@@@@@@@@@@@@@OOOO/..OOOOOOO.,OOOOOOO@/[O@@/` @OO`.O@@@OOO@@@OO@@OO`.,O/[@@OOOOOOOOOOOOOOOOOOOOOOOOOOOOOO@OO^ ",0x00
       0000555A 4F 4F 4F 4F 4F 4F 4F 4F 4F 4F 
       00005564 4F 4F 4F 4F 4F 4F 4F 4F 4F 4F 
       0000556E 4F 4F 4F 40 40 40 40 40 40 40 
       00005578 40 40 40 40 40 40 40 40 40 40 
       00005582 40 40 4F 4F 4F 4F 2F 2E 2E 4F 
       0000558C 4F 4F 4F 4F 4F 4F 2E 2C 4F 4F 
       00005596 4F 4F 4F 4F 4F 40 2F 5B 4F 40 
       000055A0 40 2F 60 20 40 4F 4F 60 2E 4F 
       000055AA 40 40 40 4F 4F 4F 40 40 40 4F 
       000055B4 4F 40 40 4F 4F 60 2E 2C 4F 2F 
       000055BE 5B 40 40 4F 4F 4F 4F 4F 4F 4F 
       000055C8 4F 4F 4F 4F 4F 4F 4F 4F 4F 4F 
       000055D2 4F 4F 4F 4F 4F 4F 4F 4F 4F 4F 
       000055DC 4F 4F 4F 40 4F 4F 5E 20 00 
  2984 000055E5 00 00 00 00 00                  	RESB	5
  2985 000055EA 3D 4F 40 4F 4F 4F 4F 4F 4F 4F   	DB	"=O@OOOOOOOOOOOOOOOOOOOOOOOOOOOOOO^                 =OO@@^ .O@@@OO   O@O@OOOOO`   OO^  OOO  ,[[[OO[[[[[[[[OO  .O^   OOOOOOOOOOOOOOOOOOOOOOOOOOOOOOOO@@^ ",0x00
       000055F4 4F 4F 4F 4F 4F 4F 4F 4F 4F 4F 
       000055FE 4F 4F 4F 4F 4F 4F 4F 4F 4F 4F 
       00005608 4F 4F 4F 5E 20 20 20 20 20 20 
       00005612 20 20 20 20 20 20 20 20 20 20 
       0000561C 20 3D 4F 4F 40 40 5E 20 2E 4F 
       00005626 40 40 40 4F 4F 20 20 20 4F 40 
       00005630 4F 40 4F 4F 4F 4F 4F 60 20 20 
       0000563A 20 4F 4F 5E 20 20 4F 4F 4F 20 
       00005644 20 2C 5B 5B 5B 4F 4F 5B 5B 5B 
       0000564E 5B 5B 5B 5B 5B 4F 4F 20 20 2E 
       00005658 4F 5E 20 20 20 4F 4F 4F 4F 4F 
       00005662 4F 4F 4F 4F 4F 4F 4F 4F 4F 4F 
       0000566C 4F 4F 4F 4F 4F 4F 4F 4F 4F 4F 
       00005676 4F 4F 4F 4F 4F 4F 4F 40 40 5E 
       00005680 20 00 
  2986 00005682 00 00                           	RESB	2
  2987 00005684 3D 4F 4F 4F 4F 4F 4F 4F 4F 4F   	DB	"=OOOOOOOOOOOOOOOOOOOOOOOOOOOOOOOOOOOO^  OOOOO  =OOOOOO/.   ..,OO   OO.  OOOOO@OO^              ,OO]]]]`   OO.  OOO`OOOOOOOOOOOOOOOOOOOOOOOOOOOOOOOOOOO^ ",0x00
       0000568E 4F 4F 4F 4F 4F 4F 4F 4F 4F 4F 
       00005698 4F 4F 4F 4F 4F 4F 4F 4F 4F 4F 
       000056A2 4F 4F 4F 4F 4F 4F 4F 5E 20 20 
       000056AC 4F 4F 4F 4F 4F 20 20 3D 4F 4F 
       000056B6 4F 4F 4F 4F 2F 2E 20 20 20 2E 
       000056C0 2E 2C 4F 4F 20 20 20 4F 4F 2E 
       000056CA 20 20 4F 4F 4F 4F 4F 40 4F 4F 
       000056D4 5E 20 20 20 20 20 20 20 20 20 
       000056DE 20 20 20 20 20 2C 4F 4F 5D 5D 
       000056E8 5D 5D 60 20 20 20 4F 4F 2E 20 
       000056F2 20 4F 4F 4F 60 4F 4F 4F 4F 4F 
       000056FC 4F 4F 4F 4F 4F 4F 4F 4F 4F 4F 
       00005706 4F 4F 4F 4F 4F 4F 4F 4F 4F 4F 
       00005710 4F 4F 4F 4F 4F 4F 4F 4F 4F 4F 
       0000571A 5E 20 00 
  2988 0000571D 00                              	RESB	1
  2989 0000571E 3D 4F 4F 4F 4F 4F 4F 4F 4F 4F   	DB	"=OOOOOOOOOOOOOOOOOOOOOOOOOOOOOOOOOOOO^  OOOOO  =OOOOOO`  ,   /   O[[[   OO/ [OOO  =@@^  ,[[[[OOO` =@O  ..          OOOOOOOOOOOOOOOOOOOOOOOOOOOOOOOOO^ ",0x00
       00005728 4F 4F 4F 4F 4F 4F 4F 4F 4F 4F 
       00005732 4F 4F 4F 4F 4F 4F 4F 4F 4F 4F 
       0000573C 4F 4F 4F 4F 4F 4F 4F 5E 20 20 
       00005746 4F 4F 4F 4F 4F 20 20 3D 4F 4F 
       00005750 4F 4F 4F 4F 60 20 20 2C 20 20 
       0000575A 20 2F 20 20 20 4F 5B 5B 5B 20 
       00005764 20 20 4F 4F 2F 20 5B 4F 4F 4F 
       0000576E 20 20 3D 40 40 5E 20 20 2C 5B 
       00005778 5B 5B 5B 4F 4F 4F 60 20 3D 40 
       00005782 4F 20 20 2E 2E 20 20 20 20 20 
       0000578C 20 20 20 20 20 4F 4F 4F 4F 4F 
       00005796 4F 4F 4F 4F 4F 4F 4F 4F 4F 4F 
       000057A0 4F 4F 4F 4F 4F 4F 4F 4F 4F 4F 
       000057AA 4F 4F 4F 4F 4F 4F 4F 4F 5E 20 
       000057B4 00 
  2990 000057B5 00 00 00                        	RESB	3
  2991 000057B8 3D 4F 4F 4F 4F 4F 4F 4F 4F 4F   	DB	"=OOOOOOOOOOOOOOOOOOOOOOOOOOOOOOOOOOOO`  [OOO/  ,OOOOOO^ .O. ,.           OO`  /O      O`.    /OO   `  /O]`  OOO.,OOOOOOOOOOOOOOOOOOOOOOOOOOOOOOOOOO^ ",0x00
       000057C2 4F 4F 4F 4F 4F 4F 4F 4F 4F 4F 
       000057CC 4F 4F 4F 4F 4F 4F 4F 4F 4F 4F 
       000057D6 4F 4F 4F 4F 4F 4F 4F 60 20 20 
       000057E0 5B 4F 4F 4F 2F 20 20 2C 4F 4F 
       000057EA 4F 4F 4F 4F 5E 20 2E 4F 2E 20 
       000057F4 2C 2E 20 20 20 20 20 20 20 20 
       000057FE 20 20 20 4F 4F 60 20 20 2F 4F 
       00005808 20 20 20 20 20 20 4F 60 2E 20 
       00005812 20 20 20 2F 4F 4F 20 20 20 60 
       0000581C 20 20 2F 4F 5D 60 20 20 4F 4F 
       00005826 4F 2E 2C 4F 4F 4F 4F 4F 4F 4F 
       00005830 4F 4F 4F 4F 4F 4F 4F 4F 4F 4F 
       0000583A 4F 4F 4F 4F 4F 4F 4F 4F 4F 4F 
       00005844 4F 4F 4F 4F 4F 4F 4F 5E 20 00 
  2992 0000584E 00 00 00 00                     	RESB	4
  2993 00005852 3D 4F 4F 4F 4F 4F 4F 4F 4F 4F   	DB	"=OOOOOOOOOOOOOOOOOOOOOOOOOOOOOOO                   OO/  =O  =OOOOOOOOOOOOOOOO@@OO  ,`  O@O  =@@OOOO`   =OOO^  =O  ,OOOOOOOOOOOOOOOOOOOOOOOOOOOOOOOOOO^ ",0x00
       0000585C 4F 4F 4F 4F 4F 4F 4F 4F 4F 4F 
       00005866 4F 4F 4F 4F 4F 4F 4F 4F 4F 4F 
       00005870 4F 4F 20 20 20 20 20 20 20 20 
       0000587A 20 20 20 20 20 20 20 20 20 20 
       00005884 20 4F 4F 2F 20 20 3D 4F 20 20 
       0000588E 3D 4F 4F 4F 4F 4F 4F 4F 4F 4F 
       00005898 4F 4F 4F 4F 4F 4F 4F 40 40 4F 
       000058A2 4F 20 20 2C 60 20 20 4F 40 4F 
       000058AC 20 20 3D 40 40 4F 4F 4F 4F 60 
       000058B6 20 20 20 3D 4F 4F 4F 5E 20 20 
       000058C0 3D 4F 20 20 2C 4F 4F 4F 4F 4F 
       000058CA 4F 4F 4F 4F 4F 4F 4F 4F 4F 4F 
       000058D4 4F 4F 4F 4F 4F 4F 4F 4F 4F 4F 
       000058DE 4F 4F 4F 4F 4F 4F 4F 4F 4F 5E 
       000058E8 20 00 
  2994 000058EA 00 00                           	RESB	2
  2995 000058EC 3D 4F 4F 4F 4F 4F 4F 4F 4F 4F   	DB	"=OOOOOOOOOOOOOOOOOOOOOOOOOOOOOOOOOOOO  .OOOOO  =OOOOOOO`    ,OO          OOOOO` ^  O^         .OOOO/    OOOO     ,OOOOOOOOOOOOOOOOOOOOOOOOOOOOOOOOOOO^ ",0x00
       000058F6 4F 4F 4F 4F 4F 4F 4F 4F 4F 4F 
       00005900 4F 4F 4F 4F 4F 4F 4F 4F 4F 4F 
       0000590A 4F 4F 4F 4F 4F 4F 4F 20 20 2E 
       00005914 4F 4F 4F 4F 4F 20 20 3D 4F 4F 
       0000591E 4F 4F 4F 4F 4F 60 20 20 20 20 
       00005928 2C 4F 4F 20 20 20 20 20 20 20 
       00005932 20 20 20 4F 4F 4F 4F 4F 60 20 
       0000593C 5E 20 20 4F 5E 20 20 20 20 20 
       00005946 20 20 20 20 2E 4F 4F 4F 4F 2F 
       00005950 20 20 20 20 4F 4F 4F 4F 20 20 
       0000595A 20 20 20 2C 4F 4F 4F 4F 4F 4F 
       00005964 4F 4F 4F 4F 4F 4F 4F 4F 4F 4F 
       0000596E 4F 4F 4F 4F 4F 4F 4F 4F 4F 4F 
       00005978 4F 4F 4F 4F 4F 4F 4F 4F 4F 5E 
       00005982 20 00 
  2996 00005984 00 00                           	RESB	2
  2997 00005986 3D 4F 4F 4F 4F 4F 4F 4F 4F 4F   	DB	"=OOOOOOOOOOOOOOOOOOOOOOOOOOOOOOOOOOO.  /OOOOO  =OOOOOOOOO`   O  =OOOO^  OOOO^  /` ,O^ .OOO  =OOOO@`  ,   O@^   /O.[OOOOOOOOOOOOOOOOOOOOOOOOOOOOOOOOO^ ",0x00
       00005990 4F 4F 4F 4F 4F 4F 4F 4F 4F 4F 
       0000599A 4F 4F 4F 4F 4F 4F 4F 4F 4F 4F 
       000059A4 4F 4F 4F 4F 4F 4F 2E 20 20 2F 
       000059AE 4F 4F 4F 4F 4F 20 20 3D 4F 4F 
       000059B8 4F 4F 4F 4F 4F 4F 4F 60 20 20 
       000059C2 20 4F 20 20 3D 4F 4F 4F 4F 5E 
       000059CC 20 20 4F 4F 4F 4F 5E 20 20 2F 
       000059D6 60 20 2C 4F 5E 20 2E 4F 4F 4F 
       000059E0 20 20 3D 4F 4F 4F 4F 40 60 20 
       000059EA 20 2C 20 20 20 4F 40 5E 20 20 
       000059F4 20 2F 4F 2E 5B 4F 4F 4F 4F 4F 
       000059FE 4F 4F 4F 4F 4F 4F 4F 4F 4F 4F 
       00005A08 4F 4F 4F 4F 4F 4F 4F 4F 4F 4F 
       00005A12 4F 4F 4F 4F 4F 4F 4F 4F 5E 20 
       00005A1C 00 
  2998 00005A1D 00 00 00                        	RESB	3
  2999 00005A20 3D 4F 4F 4F 4F 4F 4F 4F 4F 4F   	DB	"=OOOOOOOOOOOOOOOOOOOOOOOOOOOOOOOOO[   /OOOOOO  =OOOOOOO/   ] ,O  ,[[[`  OOO/  =^  O@` =O@O  =OOO^   /OO`//`     ,`  /OOOOOOOOOOOOOOOOOOOOOOOOOOOOOOOO^ ",0x00
       00005A2A 4F 4F 4F 4F 4F 4F 4F 4F 4F 4F 
       00005A34 4F 4F 4F 4F 4F 4F 4F 4F 4F 4F 
       00005A3E 4F 4F 4F 4F 5B 20 20 20 2F 4F 
       00005A48 4F 4F 4F 4F 4F 20 20 3D 4F 4F 
       00005A52 4F 4F 4F 4F 4F 2F 20 20 20 5D 
       00005A5C 20 2C 4F 20 20 2C 5B 5B 5B 60 
       00005A66 20 20 4F 4F 4F 2F 20 20 3D 5E 
       00005A70 20 20 4F 40 60 20 3D 4F 40 4F 
       00005A7A 20 20 3D 4F 4F 4F 5E 20 20 20 
       00005A84 2F 4F 4F 60 2F 2F 60 20 20 20 
       00005A8E 20 20 2C 60 20 20 2F 4F 4F 4F 
       00005A98 4F 4F 4F 4F 4F 4F 4F 4F 4F 4F 
       00005AA2 4F 4F 4F 4F 4F 4F 4F 4F 4F 4F 
       00005AAC 4F 4F 4F 4F 4F 4F 4F 4F 4F 5E 
       00005AB6 20 00 
  3000 00005AB8 00 00                           	RESB	2
  3001 00005ABA 3D 4F 4F 4F 4F 4F 4F 4F 4F 4F   	DB	"=OOOOOOOOOOOOOOOOOOOOOOOOOOOOOOOO`  ,OOOOOOOO  =OOOOOO  ,OOOOO          OOO` .]  /.   /   /OOOOO]OOOOOO ,/O`    ,OOOOOOOOOOOOOOOOOOOOOOOOOOOOOOOOO^ ",0x00
       00005AC4 4F 4F 4F 4F 4F 4F 4F 4F 4F 4F 
       00005ACE 4F 4F 4F 4F 4F 4F 4F 4F 4F 4F 
       00005AD8 4F 4F 4F 60 20 20 2C 4F 4F 4F 
       00005AE2 4F 4F 4F 4F 4F 20 20 3D 4F 4F 
       00005AEC 4F 4F 4F 4F 20 20 2C 4F 4F 4F 
       00005AF6 4F 4F 20 20 20 20 20 20 20 20 
       00005B00 20 20 4F 4F 4F 60 20 2E 5D 20 
       00005B0A 20 2F 2E 20 20 20 2F 20 20 20 
       00005B14 2F 4F 4F 4F 4F 4F 5D 4F 4F 4F 
       00005B1E 4F 4F 4F 20 2C 2F 4F 60 20 20 
       00005B28 20 20 2C 4F 4F 4F 4F 4F 4F 4F 
       00005B32 4F 4F 4F 4F 4F 4F 4F 4F 4F 4F 
       00005B3C 4F 4F 4F 4F 4F 4F 4F 4F 4F 4F 
       00005B46 4F 4F 4F 4F 4F 4F 5E 20 00 
  3002 00005B4F 00 00 00 00 00                  	RESB	5
  3003 00005B54 3D 4F 4F 4F 4F 4F 4F 4F 4F 4F   	DB	"=OOOOOOOOOOOOOOOOOOOOOOOOOOOOOOOOOOOOOOOOOOOOOOOOOOOOOOOOOOOOOOOOOOOOOOOOOOOOOOOOOOOOOOOOOOOOOOOOOOOOOOOOOOOOOOOOOOOOOOOOOOOOOOOOOOOOOOOOOOOOOOOOOOOOO^ ",0x00
       00005B5E 4F 4F 4F 4F 4F 4F 4F 4F 4F 4F 
       00005B68 4F 4F 4F 4F 4F 4F 4F 4F 4F 4F 
       00005B72 4F 4F 4F 4F 4F 4F 4F 4F 4F 4F 
       00005B7C 4F 4F 4F 4F 4F 4F 4F 4F 4F 4F 
       00005B86 4F 4F 4F 4F 4F 4F 4F 4F 4F 4F 
       00005B90 4F 4F 4F 4F 4F 4F 4F 4F 4F 4F 
       00005B9A 4F 4F 4F 4F 4F 4F 4F 4F 4F 4F 
       00005BA4 4F 4F 4F 4F 4F 4F 4F 4F 4F 4F 
       00005BAE 4F 4F 4F 4F 4F 4F 4F 4F 4F 4F 
       00005BB8 4F 4F 4F 4F 4F 4F 4F 4F 4F 4F 
       00005BC2 4F 4F 4F 4F 4F 4F 4F 4F 4F 4F 
       00005BCC 4F 4F 4F 4F 4F 4F 4F 4F 4F 4F 
       00005BD6 4F 4F 4F 4F 4F 4F 4F 4F 4F 4F 
       00005BE0 4F 4F 4F 4F 4F 4F 4F 4F 4F 4F 
       00005BEA 5E 20 00 
  3004 00005BED 00                              	RESB	1
  3005 00005BEE 2E 4F 4F 4F 4F 4F 4F 4F 4F 4F   	DB	".OOOOOOOOOOOOOOOOOOOOOOOOOOOOOOOOOOOOOOOOOOOoOOOOOOOOOOOOOOOOOOOOOOOOOOOOOOOOOOOOOOOOOOOOOOOOOOOOOOOOOOOOOOOOOOOOOOOOOOOOOOOOOOOOOOOOOOoOOOOOOOOOOOOOO^ ",0x00
       00005BF8 4F 4F 4F 4F 4F 4F 4F 4F 4F 4F 
       00005C02 4F 4F 4F 4F 4F 4F 4F 4F 4F 4F 
       00005C0C 4F 4F 4F 4F 4F 4F 4F 4F 4F 4F 
       00005C16 4F 4F 4F 4F 6F 4F 4F 4F 4F 4F 
       00005C20 4F 4F 4F 4F 4F 4F 4F 4F 4F 4F 
       00005C2A 4F 4F 4F 4F 4F 4F 4F 4F 4F 4F 
       00005C34 4F 4F 4F 4F 4F 4F 4F 4F 4F 4F 
       00005C3E 4F 4F 4F 4F 4F 4F 4F 4F 4F 4F 
       00005C48 4F 4F 4F 4F 4F 4F 4F 4F 4F 4F 
       00005C52 4F 4F 4F 4F 4F 4F 4F 4F 4F 4F 
       00005C5C 4F 4F 4F 4F 4F 4F 4F 4F 4F 4F 
       00005C66 4F 4F 4F 4F 4F 4F 4F 4F 4F 4F 
       00005C70 4F 4F 4F 4F 4F 6F 4F 4F 4F 4F 
       00005C7A 4F 4F 4F 4F 4F 4F 4F 4F 4F 4F 
       00005C84 5E 20 00 
  3006 00005C87 00                              	RESB	1
  3007 00005C88 2E 4F 4F 4F 4F 4F 4F 4F 4F 4F   	DB	".OOOOOOOOOOOOOOOOOOOOOOOOOOOOOOOOOOOOOOOOooooooOOOOOOOOOOOOOOOOOOOOOOOOOOOOOOOOOOOOOOOOOOOOOOOOOOOOOOOOOOOOOOOOOOOOOOOOOOOOOOOOOOOOOOoooooOOOOOOOOOOOO. ",0x00
       00005C92 4F 4F 4F 4F 4F 4F 4F 4F 4F 4F 
       00005C9C 4F 4F 4F 4F 4F 4F 4F 4F 4F 4F 
       00005CA6 4F 4F 4F 4F 4F 4F 4F 4F 4F 4F 
       00005CB0 4F 6F 6F 6F 6F 6F 6F 4F 4F 4F 
       00005CBA 4F 4F 4F 4F 4F 4F 4F 4F 4F 4F 
       00005CC4 4F 4F 4F 4F 4F 4F 4F 4F 4F 4F 
       00005CCE 4F 4F 4F 4F 4F 4F 4F 4F 4F 4F 
       00005CD8 4F 4F 4F 4F 4F 4F 4F 4F 4F 4F 
       00005CE2 4F 4F 4F 4F 4F 4F 4F 4F 4F 4F 
       00005CEC 4F 4F 4F 4F 4F 4F 4F 4F 4F 4F 
       00005CF6 4F 4F 4F 4F 4F 4F 4F 4F 4F 4F 
       00005D00 4F 4F 4F 4F 4F 4F 4F 4F 4F 4F 
       00005D0A 4F 4F 4F 6F 6F 6F 6F 6F 4F 4F 
       00005D14 4F 4F 4F 4F 4F 4F 4F 4F 4F 4F 
       00005D1E 2E 20 00 
  3008 00005D21 00                              	RESB	1
  3009 00005D22 20 2C 4F 4F 4F 4F 4F 4F 4F 4F   	DB	" ,OOOOOOOOOOOOOOOOOOOOOOOOOOOOOOOOoooOoooooooOOOoOOOOOOOOOOOOOOOOOOOOOOOOOOOOOOOOOoOoooOOOOOOOoOOOOOOOOOOOOOOOOOOOOOOOOOOOOOOOOOoOoooooooooOOOOOOOOOO^  ",0x00
       00005D2C 4F 4F 4F 4F 4F 4F 4F 4F 4F 4F 
       00005D36 4F 4F 4F 4F 4F 4F 4F 4F 4F 4F 
       00005D40 4F 4F 4F 4F 6F 6F 6F 4F 6F 6F 
       00005D4A 6F 6F 6F 6F 6F 4F 4F 4F 6F 4F 
       00005D54 4F 4F 4F 4F 4F 4F 4F 4F 4F 4F 
       00005D5E 4F 4F 4F 4F 4F 4F 4F 4F 4F 4F 
       00005D68 4F 4F 4F 4F 4F 4F 4F 4F 4F 4F 
       00005D72 4F 4F 6F 4F 6F 6F 6F 4F 4F 4F 
       00005D7C 4F 4F 4F 4F 6F 4F 4F 4F 4F 4F 
       00005D86 4F 4F 4F 4F 4F 4F 4F 4F 4F 4F 
       00005D90 4F 4F 4F 4F 4F 4F 4F 4F 4F 4F 
       00005D9A 4F 4F 4F 4F 4F 4F 4F 4F 6F 4F 
       00005DA4 6F 6F 6F 6F 6F 6F 6F 6F 6F 4F 
       00005DAE 4F 4F 4F 4F 4F 4F 4F 4F 4F 5E 
       00005DB8 20 20 00 
  3010 00005DBB 00                              	RESB	1
  3011 00005DBC 20 20 2C 4F 4F 4F 4F 4F 6F 6F   	DB	"  ,OOOOOoooooooooooooooooooooooooooooooooooooooooooooooooooooooooooooooooooooooooooo,o,=oooooooooooooooooooooooooooooooooooooooooooooooooooooooOOOOO`   ",0x00
       00005DC6 6F 6F 6F 6F 6F 6F 6F 6F 6F 6F 
       00005DD0 6F 6F 6F 6F 6F 6F 6F 6F 6F 6F 
       00005DDA 6F 6F 6F 6F 6F 6F 6F 6F 6F 6F 
       00005DE4 6F 6F 6F 6F 6F 6F 6F 6F 6F 6F 
       00005DEE 6F 6F 6F 6F 6F 6F 6F 6F 6F 6F 
       00005DF8 6F 6F 6F 6F 6F 6F 6F 6F 6F 6F 
       00005E02 6F 6F 6F 6F 6F 6F 6F 6F 6F 6F 
       00005E0C 6F 6F 6F 6F 2C 6F 2C 3D 6F 6F 
       00005E16 6F 6F 6F 6F 6F 6F 6F 6F 6F 6F 
       00005E20 6F 6F 6F 6F 6F 6F 6F 6F 6F 6F 
       00005E2A 6F 6F 6F 6F 6F 6F 6F 6F 6F 6F 
       00005E34 6F 6F 6F 6F 6F 6F 6F 6F 6F 6F 
       00005E3E 6F 6F 6F 6F 6F 6F 6F 6F 6F 6F 
       00005E48 6F 6F 6F 4F 4F 4F 4F 4F 60 20 
       00005E52 20 20 00 
  3012 00005E55 00                              	RESB	1
  3013 00005E56 20 20 20 20 2C 4F 4F 4F 4F 4F   	DB	"    ,OOOOOOOOOOOOOOOOOOOOOOOOOOOOOOOOooOOOOOOOOOOOOOOOOOOOOOOOOOOOOOOOOOOOOOOOOOOOOOOooOOOOOOOOOOOOOOOOOOOOOOOOOOOOOOOOOOOOOOOOOOooOOOOOOOOOOOOOOO[     ",0x00
       00005E60 4F 4F 4F 4F 4F 4F 4F 4F 4F 4F 
       00005E6A 4F 4F 4F 4F 4F 4F 4F 4F 4F 4F 
       00005E74 4F 4F 4F 4F 4F 4F 4F 6F 6F 4F 
       00005E7E 4F 4F 4F 4F 4F 4F 4F 4F 4F 4F 
       00005E88 4F 4F 4F 4F 4F 4F 4F 4F 4F 4F 
       00005E92 4F 4F 4F 4F 4F 4F 4F 4F 4F 4F 
       00005E9C 4F 4F 4F 4F 4F 4F 4F 4F 4F 4F 
       00005EA6 4F 4F 4F 4F 4F 6F 6F 4F 4F 4F 
       00005EB0 4F 4F 4F 4F 4F 4F 4F 4F 4F 4F 
       00005EBA 4F 4F 4F 4F 4F 4F 4F 4F 4F 4F 
       00005EC4 4F 4F 4F 4F 4F 4F 4F 4F 4F 4F 
       00005ECE 4F 4F 4F 4F 4F 4F 4F 4F 4F 6F 
       00005ED8 6F 4F 4F 4F 4F 4F 4F 4F 4F 4F 
       00005EE2 4F 4F 4F 4F 4F 4F 5B 20 20 20 
       00005EEC 20 20 00 
  3014 00005EEF 00                              	RESB	1
  3015 00005EF0 20 20 20 20 20 20 20 2C 5B 4F   	DB	"       ,[OOOOOOOOOOOOOOOOOOOOOOOOOOOOOOOOOOOOOOOOOOOOOOOOOOOOOOOOOOOOOOOOOOOOOOOOOOOOOOOOOOOOOOOOOOOOOOOOOOOOOOOOOOOOOOOOOOOOOOOOOOOOOOOOOOOOO[`        ",0x00
       00005EFA 4F 4F 4F 4F 4F 4F 4F 4F 4F 4F 
       00005F04 4F 4F 4F 4F 4F 4F 4F 4F 4F 4F 
       00005F0E 4F 4F 4F 4F 4F 4F 4F 4F 4F 4F 
       00005F18 4F 4F 4F 4F 4F 4F 4F 4F 4F 4F 
       00005F22 4F 4F 4F 4F 4F 4F 4F 4F 4F 4F 
       00005F2C 4F 4F 4F 4F 4F 4F 4F 4F 4F 4F 
       00005F36 4F 4F 4F 4F 4F 4F 4F 4F 4F 4F 
       00005F40 4F 4F 4F 4F 4F 4F 4F 4F 4F 4F 
       00005F4A 4F 4F 4F 4F 4F 4F 4F 4F 4F 4F 
       00005F54 4F 4F 4F 4F 4F 4F 4F 4F 4F 4F 
       00005F5E 4F 4F 4F 4F 4F 4F 4F 4F 4F 4F 
       00005F68 4F 4F 4F 4F 4F 4F 4F 4F 4F 4F 
       00005F72 4F 4F 4F 4F 4F 4F 4F 4F 4F 4F 
       00005F7C 4F 4F 5B 60 20 20 20 20 20 20 
       00005F86 20 20 00 
  3016 00005F89 00                              	RESB	1
  3017                                          [SECTION .text]
  3018 00001F1B                                 	GLOBAL	_draw_startbutton
  3019 00001F1B                                 _draw_startbutton:
  3020 00001F1B 55                              	PUSH	EBP
  3021 00001F1C 31 C9                           	XOR	ECX,ECX
  3022 00001F1E 89 E5                           	MOV	EBP,ESP
  3023 00001F20 57                              	PUSH	EDI
  3024 00001F21 56                              	PUSH	ESI
  3025 00001F22 53                              	PUSH	EBX
  3026 00001F23 50                              	PUSH	EAX
  3027 00001F24 50                              	PUSH	EAX
  3028 00001F25 8B 45 08                        	MOV	EAX,DWORD [8+EBP]
  3029 00001F28 8B 7D 10                        	MOV	EDI,DWORD [16+EBP]
  3030 00001F2B C7 45 F0 00000000               	MOV	DWORD [-16+EBP],0
  3031 00001F32 8B 70 04                        	MOV	ESI,DWORD [4+EAX]
  3032 00001F35 8B 18                           	MOV	EBX,DWORD [EAX]
  3033 00001F37                                 L343:
  3034 00001F37 31 D2                           	XOR	EDX,EDX
  3035 00001F39                                 L342:
  3036 00001F39 8B 45 F0                        	MOV	EAX,DWORD [-16+EBP]
  3037 00001F3C 8A 84 02 [0000511A]             	MOV	AL,BYTE [_table.6+EDX+EAX*1]
  3038 00001F43 88 45 EF                        	MOV	BYTE [-17+EBP],AL
  3039 00001F46 3C 20                           	CMP	AL,32
  3040 00001F48 74 0C                           	JE	L340
  3041 00001F4A 80 7D EF 4F                     	CMP	BYTE [-17+EBP],79
  3042 00001F4E 74 43                           	JE	L348
  3043 00001F50 80 7D EF 6F                     	CMP	BYTE [-17+EBP],111
  3044 00001F54 74 2C                           	JE	L349
  3045 00001F56                                 L340:
  3046 00001F56 8D 04 39                        	LEA	EAX,DWORD [ECX+EDI*1]
  3047 00001F59 0F AF C6                        	IMUL	EAX,ESI
  3048 00001F5C 01 D0                           	ADD	EAX,EDX
  3049 00001F5E 03 45 0C                        	ADD	EAX,DWORD [12+EBP]
  3050 00001F61 C6 04 18 07                     	MOV	BYTE [EAX+EBX*1],7
  3051 00001F65                                 L334:
  3052 00001F65 42                              	INC	EDX
  3053 00001F66 81 FA 0000009A                  	CMP	EDX,154
  3054 00001F6C 7C CB                           	JL	L342
  3055 00001F6E 41                              	INC	ECX
  3056 00001F6F 81 45 F0 0000009A               	ADD	DWORD [-16+EBP],154
  3057 00001F76 83 F9 18                        	CMP	ECX,24
  3058 00001F79 7C BC                           	JL	L343
  3059 00001F7B 5E                              	POP	ESI
  3060 00001F7C 5F                              	POP	EDI
  3061 00001F7D 5B                              	POP	EBX
  3062 00001F7E 5E                              	POP	ESI
  3063 00001F7F 5F                              	POP	EDI
  3064 00001F80 5D                              	POP	EBP
  3065 00001F81 C3                              	RET
  3066 00001F82                                 L349:
  3067 00001F82 8D 04 39                        	LEA	EAX,DWORD [ECX+EDI*1]
  3068 00001F85 0F AF C6                        	IMUL	EAX,ESI
  3069 00001F88 01 D0                           	ADD	EAX,EDX
  3070 00001F8A 03 45 0C                        	ADD	EAX,DWORD [12+EBP]
  3071 00001F8D C6 04 18 03                     	MOV	BYTE [EAX+EBX*1],3
  3072 00001F91 EB D2                           	JMP	L334
  3073 00001F93                                 L348:
  3074 00001F93 8D 04 39                        	LEA	EAX,DWORD [ECX+EDI*1]
  3075 00001F96 0F AF C6                        	IMUL	EAX,ESI
  3076 00001F99 01 D0                           	ADD	EAX,EDX
  3077 00001F9B 03 45 0C                        	ADD	EAX,DWORD [12+EBP]
  3078 00001F9E C6 04 18 02                     	MOV	BYTE [EAX+EBX*1],2
  3079 00001FA2 EB C1                           	JMP	L334
  3080 00001FA4                                 	GLOBAL	_fifo
  3081                                          [SECTION .data]
  3082 00005F8A 00 00 00 00 00 00               	ALIGNB	16
  3083 00005F90                                 _fifo:
  3084 00005F90 00 00 00 00 00 00 00 00 00 00   	RESB	24
       00005F9A 00 00 00 00 00 00 00 00 00 00 
       00005FA4 00 00 00 00 
  3085 00005FA8                                 	GLOBAL	_timer4
  3086                                          [SECTION .data]
  3087 00005FA8                                 	ALIGNB	4
  3088 00005FA8                                 _timer4:
  3089 00005FA8 00 00 00 00                     	RESB	4
  3090 00005FAC                                 	GLOBAL	_mx
  3091                                          [SECTION .data]
  3092 00005FAC                                 	ALIGNB	4
  3093 00005FAC                                 _mx:
  3094 00005FAC 00 00 00 00                     	RESB	4
  3095 00005FB0                                 	GLOBAL	_my
  3096                                          [SECTION .data]
  3097 00005FB0                                 	ALIGNB	4
  3098 00005FB0                                 _my:
  3099 00005FB0 00 00 00 00                     	RESB	4
