     1 00000000                                 [FORMAT "WCOFF"]
     2 00000000                                 [INSTRSET "i486p"]
     3 00000000                                 [OPTIMIZE 1]
     4 00000000                                 [OPTION 1]
     5 00000000                                 [BITS 32]
     6 00000000                                 	EXTERN	_io_out8
     7 00000000                                 	EXTERN	_io_in8
     8 00000000                                 	EXTERN	_fifo32_put
     9 00000000                                 	EXTERN	_boxfill8
    10 00000000                                 	EXTERN	_grade
    11 00000000                                 	EXTERN	_sprintf
    12 00000000                                 	EXTERN	_putfonts8_asc_sht
    13 00000000                                 	EXTERN	_count
    14 00000000                                 	EXTERN	_draw_cycle
    15 00000000                                 	EXTERN	_fifo
    16 00000000                                 	EXTERN	_timer4
    17 00000000                                 	EXTERN	_timer_init
    18 00000000                                 	EXTERN	_draw_button
    19 00000000                                 [FILE "keyboard.c"]
    20                                          [SECTION .text]
    21 00000000                                 	GLOBAL	_inthandler21
    22 00000000                                 _inthandler21:
    23 00000000 55                              	PUSH	EBP
    24 00000001 89 E5                           	MOV	EBP,ESP
    25 00000003 6A 61                           	PUSH	97
    26 00000005 6A 20                           	PUSH	32
    27 00000007 E8 [00000000]                   	CALL	_io_out8
    28 0000000C 6A 60                           	PUSH	96
    29 0000000E E8 [00000000]                   	CALL	_io_in8
    30 00000013 03 05 [00000068]                	ADD	EAX,DWORD [_keydata0]
    31 00000019 50                              	PUSH	EAX
    32 0000001A FF 35 [00000064]                	PUSH	DWORD [_keyfifo]
    33 00000020 E8 [00000000]                   	CALL	_fifo32_put
    34 00000025 C9                              	LEAVE
    35 00000026 C3                              	RET
    36 00000027                                 	GLOBAL	_wait_KBC_sendready
    37 00000027                                 _wait_KBC_sendready:
    38 00000027 55                              	PUSH	EBP
    39 00000028 89 E5                           	MOV	EBP,ESP
    40 0000002A                                 L3:
    41 0000002A 6A 64                           	PUSH	100
    42 0000002C E8 [00000000]                   	CALL	_io_in8
    43 00000031 5A                              	POP	EDX
    44 00000032 83 E0 02                        	AND	EAX,2
    45 00000035 75 F3                           	JNE	L3
    46 00000037 C9                              	LEAVE
    47 00000038 C3                              	RET
    48 00000039                                 	GLOBAL	_init_keyboard
    49 00000039                                 _init_keyboard:
    50 00000039 55                              	PUSH	EBP
    51 0000003A 89 E5                           	MOV	EBP,ESP
    52 0000003C 8B 45 08                        	MOV	EAX,DWORD [8+EBP]
    53 0000003F A3 [00000064]                   	MOV	DWORD [_keyfifo],EAX
    54 00000044 8B 45 0C                        	MOV	EAX,DWORD [12+EBP]
    55 00000047 A3 [00000068]                   	MOV	DWORD [_keydata0],EAX
    56 0000004C E8 FFFFFFD6                     	CALL	_wait_KBC_sendready
    57 00000051 6A 60                           	PUSH	96
    58 00000053 6A 64                           	PUSH	100
    59 00000055 E8 [00000000]                   	CALL	_io_out8
    60 0000005A E8 FFFFFFC8                     	CALL	_wait_KBC_sendready
    61 0000005F 59                              	POP	ECX
    62 00000060 58                              	POP	EAX
    63 00000061 C7 45 0C 00000047               	MOV	DWORD [12+EBP],71
    64 00000068 C7 45 08 00000060               	MOV	DWORD [8+EBP],96
    65 0000006F C9                              	LEAVE
    66 00000070 E9 [00000000]                   	JMP	_io_out8
    67                                          [SECTION .data]
    68 00000000                                 LC0:
    69 00000000 53 43 4F 52 45 3A 25 64 20 00   	DB	"SCORE:%d ",0x00
    70                                          [SECTION .text]
    71 00000075                                 	GLOBAL	_initgameface
    72 00000075                                 _initgameface:
    73 00000075 55                              	PUSH	EBP
    74 00000076 89 E5                           	MOV	EBP,ESP
    75 00000078 57                              	PUSH	EDI
    76 00000079 56                              	PUSH	ESI
    77 0000007A 31 F6                           	XOR	ESI,ESI
    78 0000007C 53                              	PUSH	EBX
    79 0000007D 83 EC 44                        	SUB	ESP,68
    80 00000080 8B 45 08                        	MOV	EAX,DWORD [8+EBP]
    81 00000083 FF 70 08                        	PUSH	DWORD [8+EAX]
    82 00000086 FF 70 04                        	PUSH	DWORD [4+EAX]
    83 00000089 6A 00                           	PUSH	0
    84 0000008B 6A 00                           	PUSH	0
    85 0000008D 6A 00                           	PUSH	0
    86 0000008F FF 70 04                        	PUSH	DWORD [4+EAX]
    87 00000092 FF 30                           	PUSH	DWORD [EAX]
    88 00000094 E8 [00000000]                   	CALL	_boxfill8
    89 00000099 83 C4 1C                        	ADD	ESP,28
    90 0000009C C7 45 B8 00000000               	MOV	DWORD [-72+EBP],0
    91 000000A3 C7 45 B4 00000000               	MOV	DWORD [-76+EBP],0
    92 000000AA C7 45 B0 00000000               	MOV	DWORD [-80+EBP],0
    93 000000B1                                 L21:
    94 000000B1 31 DB                           	XOR	EBX,EBX
    95 000000B3 31 FF                           	XOR	EDI,EDI
    96 000000B5                                 L20:
    97 000000B5 85 F6                           	TEST	ESI,ESI
    98 000000B7 0F 84 00000226                  	JE	L18
    99 000000BD 83 FE 18                        	CMP	ESI,24
   100 000000C0 0F 84 0000021D                  	JE	L18
   101 000000C6 85 DB                           	TEST	EBX,EBX
   102 000000C8 0F 84 00000215                  	JE	L18
   103 000000CE 83 FB 2C                        	CMP	EBX,44
   104 000000D1 0F 84 0000020C                  	JE	L18
   105 000000D7 8B 45 B8                        	MOV	EAX,DWORD [-72+EBP]
   106 000000DA 01 D8                           	ADD	EAX,EBX
   107 000000DC C7 04 85 [000023B0] 00000003    	MOV	DWORD [_face+EAX*4],3
   108 000000E7                                 L15:
   109 000000E7 43                              	INC	EBX
   110 000000E8 83 C7 14                        	ADD	EDI,20
   111 000000EB 83 FB 2C                        	CMP	EBX,44
   112 000000EE 7E C5                           	JLE	L20
   113 000000F0 46                              	INC	ESI
   114 000000F1 83 45 B8 2D                     	ADD	DWORD [-72+EBP],45
   115 000000F5 83 45 B4 14                     	ADD	DWORD [-76+EBP],20
   116 000000F9 83 45 B0 2D                     	ADD	DWORD [-80+EBP],45
   117 000000FD 83 FE 18                        	CMP	ESI,24
   118 00000100 7E AF                           	JLE	L21
   119 00000102 BE 00000005                     	MOV	ESI,5
   120 00000107 C7 45 C0 00000064               	MOV	DWORD [-64+EBP],100
   121 0000010E C7 45 BC 000000E1               	MOV	DWORD [-68+EBP],225
   122 00000115                                 L31:
   123 00000115 BB 00000005                     	MOV	EBX,5
   124 0000011A BF 00000064                     	MOV	EDI,100
   125 0000011F                                 L30:
   126 0000011F 8B 45 BC                        	MOV	EAX,DWORD [-68+EBP]
   127 00000122 8B 4D 08                        	MOV	ECX,DWORD [8+EBP]
   128 00000125 01 D8                           	ADD	EAX,EBX
   129 00000127 43                              	INC	EBX
   130 00000128 C7 04 85 [000023B0] 00000001    	MOV	DWORD [_face+EAX*4],1
   131 00000133 8B 45 C0                        	MOV	EAX,DWORD [-64+EBP]
   132 00000136 83 C0 0F                        	ADD	EAX,15
   133 00000139 50                              	PUSH	EAX
   134 0000013A 8D 47 0F                        	LEA	EAX,DWORD [15+EDI]
   135 0000013D 50                              	PUSH	EAX
   136 0000013E FF 75 C0                        	PUSH	DWORD [-64+EBP]
   137 00000141 57                              	PUSH	EDI
   138 00000142 83 C7 14                        	ADD	EDI,20
   139 00000145 6A 0B                           	PUSH	11
   140 00000147 FF 71 04                        	PUSH	DWORD [4+ECX]
   141 0000014A FF 31                           	PUSH	DWORD [ECX]
   142 0000014C E8 [00000000]                   	CALL	_boxfill8
   143 00000151 83 C4 1C                        	ADD	ESP,28
   144 00000154 83 FB 07                        	CMP	EBX,7
   145 00000157 7E C6                           	JLE	L30
   146 00000159 46                              	INC	ESI
   147 0000015A 83 45 C0 14                     	ADD	DWORD [-64+EBP],20
   148 0000015E 83 45 BC 2D                     	ADD	DWORD [-68+EBP],45
   149 00000162 83 FE 07                        	CMP	ESI,7
   150 00000165 7E AE                           	JLE	L31
   151 00000167 BE 0000000F                     	MOV	ESI,15
   152 0000016C C7 45 C8 0000012C               	MOV	DWORD [-56+EBP],300
   153 00000173 C7 45 C4 000002A3               	MOV	DWORD [-60+EBP],675
   154 0000017A                                 L41:
   155 0000017A BB 0000000F                     	MOV	EBX,15
   156 0000017F BF 0000012C                     	MOV	EDI,300
   157 00000184                                 L40:
   158 00000184 8B 45 C4                        	MOV	EAX,DWORD [-60+EBP]
   159 00000187 01 D8                           	ADD	EAX,EBX
   160 00000189 43                              	INC	EBX
   161 0000018A C7 04 85 [000023B0] 00000001    	MOV	DWORD [_face+EAX*4],1
   162 00000195 8B 45 C8                        	MOV	EAX,DWORD [-56+EBP]
   163 00000198 83 C0 0F                        	ADD	EAX,15
   164 0000019B 50                              	PUSH	EAX
   165 0000019C 8D 47 0F                        	LEA	EAX,DWORD [15+EDI]
   166 0000019F 50                              	PUSH	EAX
   167 000001A0 8B 45 08                        	MOV	EAX,DWORD [8+EBP]
   168 000001A3 FF 75 C8                        	PUSH	DWORD [-56+EBP]
   169 000001A6 57                              	PUSH	EDI
   170 000001A7 83 C7 14                        	ADD	EDI,20
   171 000001AA 6A 0B                           	PUSH	11
   172 000001AC FF 70 04                        	PUSH	DWORD [4+EAX]
   173 000001AF FF 30                           	PUSH	DWORD [EAX]
   174 000001B1 E8 [00000000]                   	CALL	_boxfill8
   175 000001B6 83 C4 1C                        	ADD	ESP,28
   176 000001B9 83 FB 11                        	CMP	EBX,17
   177 000001BC 7E C6                           	JLE	L40
   178 000001BE 46                              	INC	ESI
   179 000001BF 83 45 C8 14                     	ADD	DWORD [-56+EBP],20
   180 000001C3 83 45 C4 2D                     	ADD	DWORD [-60+EBP],45
   181 000001C7 83 FE 11                        	CMP	ESI,17
   182 000001CA 7E AE                           	JLE	L41
   183 000001CC BE 00000005                     	MOV	ESI,5
   184 000001D1 C7 45 D0 00000064               	MOV	DWORD [-48+EBP],100
   185 000001D8 C7 45 CC 000000E1               	MOV	DWORD [-52+EBP],225
   186 000001DF                                 L51:
   187 000001DF BB 00000019                     	MOV	EBX,25
   188 000001E4 BF 000001F4                     	MOV	EDI,500
   189 000001E9                                 L50:
   190 000001E9 8B 45 CC                        	MOV	EAX,DWORD [-52+EBP]
   191 000001EC 8B 55 08                        	MOV	EDX,DWORD [8+EBP]
   192 000001EF 01 D8                           	ADD	EAX,EBX
   193 000001F1 43                              	INC	EBX
   194 000001F2 C7 04 85 [000023B0] 00000001    	MOV	DWORD [_face+EAX*4],1
   195 000001FD 8B 45 D0                        	MOV	EAX,DWORD [-48+EBP]
   196 00000200 83 C0 0F                        	ADD	EAX,15
   197 00000203 50                              	PUSH	EAX
   198 00000204 8D 47 0F                        	LEA	EAX,DWORD [15+EDI]
   199 00000207 50                              	PUSH	EAX
   200 00000208 FF 75 D0                        	PUSH	DWORD [-48+EBP]
   201 0000020B 57                              	PUSH	EDI
   202 0000020C 83 C7 14                        	ADD	EDI,20
   203 0000020F 6A 0B                           	PUSH	11
   204 00000211 FF 72 04                        	PUSH	DWORD [4+EDX]
   205 00000214 FF 32                           	PUSH	DWORD [EDX]
   206 00000216 E8 [00000000]                   	CALL	_boxfill8
   207 0000021B 83 C4 1C                        	ADD	ESP,28
   208 0000021E 83 FB 1B                        	CMP	EBX,27
   209 00000221 7E C6                           	JLE	L50
   210 00000223 46                              	INC	ESI
   211 00000224 83 45 D0 14                     	ADD	DWORD [-48+EBP],20
   212 00000228 83 45 CC 2D                     	ADD	DWORD [-52+EBP],45
   213 0000022C 83 FE 07                        	CMP	ESI,7
   214 0000022F 7E AE                           	JLE	L51
   215 00000231 FF 35 [00000000]                	PUSH	DWORD [_grade]
   216 00000237 68 [00000000]                   	PUSH	LC0
   217 0000023C 8D 5D D4                        	LEA	EBX,DWORD [-44+EBP]
   218 0000023F 53                              	PUSH	EBX
   219 00000240 E8 [00000000]                   	CALL	_sprintf
   220 00000245 BA 00000002                     	MOV	EDX,2
   221 0000024A 6A 09                           	PUSH	9
   222 0000024C 8B 4D 08                        	MOV	ECX,DWORD [8+EBP]
   223 0000024F 53                              	PUSH	EBX
   224 00000250 6A 07                           	PUSH	7
   225 00000252 6A 0A                           	PUSH	10
   226 00000254 6A 00                           	PUSH	0
   227 00000256 8B 41 04                        	MOV	EAX,DWORD [4+ECX]
   228 00000259 89 D1                           	MOV	ECX,EDX
   229 0000025B 99                              	CDQ
   230 0000025C F7 F9                           	IDIV	ECX
   231 0000025E 83 E8 28                        	SUB	EAX,40
   232 00000261 50                              	PUSH	EAX
   233 00000262 FF 75 08                        	PUSH	DWORD [8+EBP]
   234 00000265 E8 [00000000]                   	CALL	_putfonts8_asc_sht
   235 0000026A 83 C4 28                        	ADD	ESP,40
   236 0000026D C7 05 [00000070] 00000002       	MOV	DWORD [_snake],2
   237 00000277 6A 01                           	PUSH	1
   238 00000279 FF 75 08                        	PUSH	DWORD [8+EBP]
   239 0000027C C7 05 [00000074] 00000016       	MOV	DWORD [_snake+4],22
   240 00000286 C7 05 [00000078] 0000000C       	MOV	DWORD [_snake+8],12
   241 00000290 C7 05 [00000080] 00000015       	MOV	DWORD [_body],21
   242 0000029A C7 05 [00000084] 0000000C       	MOV	DWORD [_body+4],12
   243 000002A4 C7 05 [00000088] 00000014       	MOV	DWORD [_body+8],20
   244 000002AE C7 05 [0000008C] 0000000C       	MOV	DWORD [_body+12],12
   245 000002B8 C7 05 [00002C78] 00000004       	MOV	DWORD [_face+2248],4
   246 000002C2 C7 05 [00002C74] 00000004       	MOV	DWORD [_face+2244],4
   247 000002CC C7 05 [00002C70] 00000004       	MOV	DWORD [_face+2240],4
   248 000002D6 E8 000000B0                     	CALL	_draw_snake
   249 000002DB 8D 65 F4                        	LEA	ESP,DWORD [-12+EBP]
   250 000002DE 5B                              	POP	EBX
   251 000002DF 5E                              	POP	ESI
   252 000002E0 5F                              	POP	EDI
   253 000002E1 5D                              	POP	EBP
   254 000002E2 C3                              	RET
   255 000002E3                                 L18:
   256 000002E3 8B 45 B0                        	MOV	EAX,DWORD [-80+EBP]
   257 000002E6 8B 55 08                        	MOV	EDX,DWORD [8+EBP]
   258 000002E9 01 D8                           	ADD	EAX,EBX
   259 000002EB C7 04 85 [000023B0] 00000001    	MOV	DWORD [_face+EAX*4],1
   260 000002F6 8B 45 B4                        	MOV	EAX,DWORD [-76+EBP]
   261 000002F9 83 C0 0F                        	ADD	EAX,15
   262 000002FC 50                              	PUSH	EAX
   263 000002FD 8D 47 0F                        	LEA	EAX,DWORD [15+EDI]
   264 00000300 50                              	PUSH	EAX
   265 00000301 FF 75 B4                        	PUSH	DWORD [-76+EBP]
   266 00000304 57                              	PUSH	EDI
   267 00000305 6A 0B                           	PUSH	11
   268 00000307 FF 72 04                        	PUSH	DWORD [4+EDX]
   269 0000030A FF 32                           	PUSH	DWORD [EDX]
   270 0000030C E8 [00000000]                   	CALL	_boxfill8
   271 00000311 83 C4 1C                        	ADD	ESP,28
   272 00000314 E9 FFFFFDCE                     	JMP	L15
   273 00000319                                 	GLOBAL	_RandFood
   274 00000319                                 _RandFood:
   275 00000319 55                              	PUSH	EBP
   276 0000031A 89 E5                           	MOV	EBP,ESP
   277 0000031C 57                              	PUSH	EDI
   278 0000031D 56                              	PUSH	ESI
   279 0000031E 53                              	PUSH	EBX
   280 0000031F 83 EC 14                        	SUB	ESP,20
   281 00000322 8B 75 08                        	MOV	ESI,DWORD [8+EBP]
   282 00000325 8B 3D [00000000]                	MOV	EDI,DWORD [_count]
   283 0000032B                                 L73:
   284 0000032B 89 F8                           	MOV	EAX,EDI
   285 0000032D B9 00000019                     	MOV	ECX,25
   286 00000332 99                              	CDQ
   287 00000333 F7 F9                           	IDIV	ECX
   288 00000335 89 F8                           	MOV	EAX,EDI
   289 00000337 BB 0000002D                     	MOV	EBX,45
   290 0000033C 89 D1                           	MOV	ECX,EDX
   291 0000033E 99                              	CDQ
   292 0000033F F7 FB                           	IDIV	EBX
   293 00000341 6B C1 2D                        	IMUL	EAX,ECX,45
   294 00000344 01 D0                           	ADD	EAX,EDX
   295 00000346 83 3C 85 [000023B0] 03          	CMP	DWORD [_face+EAX*4],3
   296 0000034E 74 03                           	JE	L74
   297 00000350 47                              	INC	EDI
   298 00000351 EB D8                           	JMP	L73
   299 00000353                                 L74:
   300 00000353 C7 04 85 [000023B0] 00000002    	MOV	DWORD [_face+EAX*4],2
   301 0000035E 6B C1 14                        	IMUL	EAX,ECX,20
   302 00000361 6A 01                           	PUSH	1
   303 00000363 83 C0 08                        	ADD	EAX,8
   304 00000366 6A 06                           	PUSH	6
   305 00000368 89 3D [00000000]                	MOV	DWORD [_count],EDI
   306 0000036E 50                              	PUSH	EAX
   307 0000036F 6B C2 14                        	IMUL	EAX,EDX,20
   308 00000372 83 C0 08                        	ADD	EAX,8
   309 00000375 50                              	PUSH	EAX
   310 00000376 FF 76 08                        	PUSH	DWORD [8+ESI]
   311 00000379 FF 76 04                        	PUSH	DWORD [4+ESI]
   312 0000037C FF 36                           	PUSH	DWORD [ESI]
   313 0000037E E8 [00000000]                   	CALL	_draw_cycle
   314 00000383 8D 65 F4                        	LEA	ESP,DWORD [-12+EBP]
   315 00000386 5B                              	POP	EBX
   316 00000387 5E                              	POP	ESI
   317 00000388 5F                              	POP	EDI
   318 00000389 5D                              	POP	EBP
   319 0000038A C3                              	RET
   320 0000038B                                 	GLOBAL	_draw_snake
   321 0000038B                                 _draw_snake:
   322 0000038B 55                              	PUSH	EBP
   323 0000038C 89 E5                           	MOV	EBP,ESP
   324 0000038E 56                              	PUSH	ESI
   325 0000038F 53                              	PUSH	EBX
   326 00000390 8B 75 08                        	MOV	ESI,DWORD [8+EBP]
   327 00000393 83 7D 0C 00                     	CMP	DWORD [12+EBP],0
   328 00000397 75 3E                           	JNE	L85
   329 00000399 8B 15 [00000070]                	MOV	EDX,DWORD [_snake]
   330 0000039F 8B 04 D5 [00000078]             	MOV	EAX,DWORD [_body-8+EDX*8]
   331 000003A6 85 C0                           	TEST	EAX,EAX
   332 000003A8 75 07                           	JNE	L86
   333 000003AA                                 L75:
   334 000003AA 8D 65 F8                        	LEA	ESP,DWORD [-8+EBP]
   335 000003AD 5B                              	POP	EBX
   336 000003AE 5E                              	POP	ESI
   337 000003AF 5D                              	POP	EBP
   338 000003B0 C3                              	RET
   339 000003B1                                 L86:
   340 000003B1 6B 14 D5 [0000007C] 14          	IMUL	EDX,DWORD [_body-4+EDX*8],20
   341 000003B9 6B C8 14                        	IMUL	ECX,EAX,20
   342 000003BC 8D 42 0F                        	LEA	EAX,DWORD [15+EDX]
   343 000003BF 50                              	PUSH	EAX
   344 000003C0 8D 41 0F                        	LEA	EAX,DWORD [15+ECX]
   345 000003C3 50                              	PUSH	EAX
   346 000003C4 52                              	PUSH	EDX
   347 000003C5 51                              	PUSH	ECX
   348 000003C6 6A 00                           	PUSH	0
   349 000003C8 FF 76 04                        	PUSH	DWORD [4+ESI]
   350 000003CB FF 36                           	PUSH	DWORD [ESI]
   351 000003CD E8 [00000000]                   	CALL	_boxfill8
   352 000003D2 83 C4 1C                        	ADD	ESP,28
   353 000003D5 EB D3                           	JMP	L75
   354 000003D7                                 L85:
   355 000003D7 6B 0D [00000078] 14             	IMUL	ECX,DWORD [_snake+8],20
   356 000003DE 6B 15 [00000074] 14             	IMUL	EDX,DWORD [_snake+4],20
   357 000003E5 8D 41 0F                        	LEA	EAX,DWORD [15+ECX]
   358 000003E8 31 DB                           	XOR	EBX,EBX
   359 000003EA 50                              	PUSH	EAX
   360 000003EB 8D 42 0F                        	LEA	EAX,DWORD [15+EDX]
   361 000003EE 50                              	PUSH	EAX
   362 000003EF 51                              	PUSH	ECX
   363 000003F0 52                              	PUSH	EDX
   364 000003F1 6A 02                           	PUSH	2
   365 000003F3 FF 76 04                        	PUSH	DWORD [4+ESI]
   366 000003F6 FF 36                           	PUSH	DWORD [ESI]
   367 000003F8 E8 [00000000]                   	CALL	_boxfill8
   368 000003FD 83 C4 1C                        	ADD	ESP,28
   369 00000400 3B 1D [00000070]                	CMP	EBX,DWORD [_snake]
   370 00000406 7D A2                           	JGE	L75
   371 00000408                                 L81:
   372 00000408 6B 14 DD [00000084] 14          	IMUL	EDX,DWORD [_body+4+EBX*8],20
   373 00000410 6B 0C DD [00000080] 14          	IMUL	ECX,DWORD [_body+EBX*8],20
   374 00000418 8D 42 0F                        	LEA	EAX,DWORD [15+EDX]
   375 0000041B 43                              	INC	EBX
   376 0000041C 50                              	PUSH	EAX
   377 0000041D 8D 41 0F                        	LEA	EAX,DWORD [15+ECX]
   378 00000420 50                              	PUSH	EAX
   379 00000421 52                              	PUSH	EDX
   380 00000422 51                              	PUSH	ECX
   381 00000423 6A 0A                           	PUSH	10
   382 00000425 FF 76 04                        	PUSH	DWORD [4+ESI]
   383 00000428 FF 36                           	PUSH	DWORD [ESI]
   384 0000042A E8 [00000000]                   	CALL	_boxfill8
   385 0000042F 83 C4 1C                        	ADD	ESP,28
   386 00000432 3B 1D [00000070]                	CMP	EBX,DWORD [_snake]
   387 00000438 7C CE                           	JL	L81
   388 0000043A E9 FFFFFF6B                     	JMP	L75
   389 0000043F                                 	GLOBAL	_movesnake
   390 0000043F                                 _movesnake:
   391 0000043F 55                              	PUSH	EBP
   392 00000440 89 E5                           	MOV	EBP,ESP
   393 00000442 57                              	PUSH	EDI
   394 00000443 56                              	PUSH	ESI
   395 00000444 53                              	PUSH	EBX
   396 00000445 51                              	PUSH	ECX
   397 00000446 51                              	PUSH	ECX
   398 00000447 8B 45 0C                        	MOV	EAX,DWORD [12+EBP]
   399 0000044A 8B 55 10                        	MOV	EDX,DWORD [16+EBP]
   400 0000044D 8B 7D 08                        	MOV	EDI,DWORD [8+EBP]
   401 00000450 89 45 F0                        	MOV	DWORD [-16+EBP],EAX
   402 00000453 89 55 EC                        	MOV	DWORD [-20+EBP],EDX
   403 00000456 52                              	PUSH	EDX
   404 00000457 50                              	PUSH	EAX
   405 00000458 57                              	PUSH	EDI
   406 00000459 E8 000000B1                     	CALL	_judgefunc
   407 0000045E 83 C4 0C                        	ADD	ESP,12
   408 00000461 48                              	DEC	EAX
   409 00000462 0F 84 0000009F                  	JE	L87
   410 00000468 6A 00                           	PUSH	0
   411 0000046A 57                              	PUSH	EDI
   412 0000046B E8 FFFFFF1B                     	CALL	_draw_snake
   413 00000470 8B 1D [00000074]                	MOV	EBX,DWORD [_snake+4]
   414 00000476 8B 15 [00000070]                	MOV	EDX,DWORD [_snake]
   415 0000047C B9 [000023B0]                   	MOV	ECX,_face
   416 00000481 8B 35 [00000078]                	MOV	ESI,DWORD [_snake+8]
   417 00000487 6B 04 D5 [0000007C] 2D          	IMUL	EAX,DWORD [_body-4+EDX*8],45
   418 0000048F 03 04 D5 [00000078]             	ADD	EAX,DWORD [_body-8+EDX*8]
   419 00000496 C7 04 81 00000003               	MOV	DWORD [ECX+EAX*4],3
   420 0000049D 6B C6 2D                        	IMUL	EAX,ESI,45
   421 000004A0 01 D8                           	ADD	EAX,EBX
   422 000004A2 C7 04 81 00000004               	MOV	DWORD [ECX+EAX*4],4
   423 000004A9 8D 4A FF                        	LEA	ECX,DWORD [-1+EDX]
   424 000004AC 58                              	POP	EAX
   425 000004AD 85 C9                           	TEST	ECX,ECX
   426 000004AF 5A                              	POP	EDX
   427 000004B0 7E 1D                           	JLE	L95
   428 000004B2                                 L93:
   429 000004B2 BA [00000080]                   	MOV	EDX,_body
   430 000004B7 8B 44 CA F8                     	MOV	EAX,DWORD [-8+EDX+ECX*8]
   431 000004BB 89 04 CA                        	MOV	DWORD [EDX+ECX*8],EAX
   432 000004BE BA [00000084]                   	MOV	EDX,_body+4
   433 000004C3 8B 44 CA F8                     	MOV	EAX,DWORD [-8+EDX+ECX*8]
   434 000004C7 89 04 CA                        	MOV	DWORD [EDX+ECX*8],EAX
   435 000004CA 49                              	DEC	ECX
   436 000004CB 85 C9                           	TEST	ECX,ECX
   437 000004CD 7F E3                           	JG	L93
   438 000004CF                                 L95:
   439 000004CF 8B 55 F0                        	MOV	EDX,DWORD [-16+EBP]
   440 000004D2 89 1D [00000080]                	MOV	DWORD [_body],EBX
   441 000004D8 89 35 [00000084]                	MOV	DWORD [_body+4],ESI
   442 000004DE 8D 04 1A                        	LEA	EAX,DWORD [EDX+EBX*1]
   443 000004E1 8B 55 EC                        	MOV	EDX,DWORD [-20+EBP]
   444 000004E4 A3 [00000074]                   	MOV	DWORD [_snake+4],EAX
   445 000004E9 8D 04 32                        	LEA	EAX,DWORD [EDX+ESI*1]
   446 000004EC A3 [00000078]                   	MOV	DWORD [_snake+8],EAX
   447 000004F1 89 7D 08                        	MOV	DWORD [8+EBP],EDI
   448 000004F4 C7 45 0C 00000001               	MOV	DWORD [12+EBP],1
   449 000004FB 8D 65 F4                        	LEA	ESP,DWORD [-12+EBP]
   450 000004FE 5B                              	POP	EBX
   451 000004FF 5E                              	POP	ESI
   452 00000500 5F                              	POP	EDI
   453 00000501 5D                              	POP	EBP
   454 00000502 E9 FFFFFE84                     	JMP	_draw_snake
   455 00000507                                 L87:
   456 00000507 8D 65 F4                        	LEA	ESP,DWORD [-12+EBP]
   457 0000050A 5B                              	POP	EBX
   458 0000050B 5E                              	POP	ESI
   459 0000050C 5F                              	POP	EDI
   460 0000050D 5D                              	POP	EBP
   461 0000050E C3                              	RET
   462 0000050F                                 	GLOBAL	_judgefunc
   463 0000050F                                 _judgefunc:
   464 0000050F 55                              	PUSH	EBP
   465 00000510 89 E5                           	MOV	EBP,ESP
   466 00000512 57                              	PUSH	EDI
   467 00000513 56                              	PUSH	ESI
   468 00000514 53                              	PUSH	EBX
   469 00000515 83 EC 28                        	SUB	ESP,40
   470 00000518 8B 45 10                        	MOV	EAX,DWORD [16+EBP]
   471 0000051B 8B 55 0C                        	MOV	EDX,DWORD [12+EBP]
   472 0000051E 03 05 [00000078]                	ADD	EAX,DWORD [_snake+8]
   473 00000524 03 15 [00000074]                	ADD	EDX,DWORD [_snake+4]
   474 0000052A 6B C0 2D                        	IMUL	EAX,EAX,45
   475 0000052D 01 D0                           	ADD	EAX,EDX
   476 0000052F 8B 04 85 [000023B0]             	MOV	EAX,DWORD [_face+EAX*4]
   477 00000536 89 45 D0                        	MOV	DWORD [-48+EBP],EAX
   478 00000539 83 F8 02                        	CMP	EAX,2
   479 0000053C 74 28                           	JE	L101
   480 0000053E 83 7D D0 01                     	CMP	DWORD [-48+EBP],1
   481 00000542 74 13                           	JE	L100
   482 00000544 83 7D D0 04                     	CMP	DWORD [-48+EBP],4
   483 00000548 74 0D                           	JE	L100
   484 0000054A B8 00000004                     	MOV	EAX,4
   485 0000054F                                 L96:
   486 0000054F 8D 65 F4                        	LEA	ESP,DWORD [-12+EBP]
   487 00000552 5B                              	POP	EBX
   488 00000553 5E                              	POP	ESI
   489 00000554 5F                              	POP	EDI
   490 00000555 5D                              	POP	EBP
   491 00000556 C3                              	RET
   492 00000557                                 L100:
   493 00000557 FF 75 08                        	PUSH	DWORD [8+EBP]
   494 0000055A E8 000000C5                     	CALL	_draw_fail
   495 0000055F B8 00000001                     	MOV	EAX,1
   496 00000564 EB E9                           	JMP	L96
   497 00000566                                 L101:
   498 00000566 8B 15 [00000070]                	MOV	EDX,DWORD [_snake]
   499 0000056C BB [00000084]                   	MOV	EBX,_body+4
   500 00000571 42                              	INC	EDX
   501 00000572 A1 [00000000]                   	MOV	EAX,DWORD [_grade]
   502 00000577 89 15 [00000070]                	MOV	DWORD [_snake],EDX
   503 0000057D 83 C0 0A                        	ADD	EAX,10
   504 00000580 8B 7C D3 F0                     	MOV	EDI,DWORD [-16+EBX+EDX*8]
   505 00000584 BE [00000080]                   	MOV	ESI,_body
   506 00000589 89 45 CC                        	MOV	DWORD [-52+EBP],EAX
   507 0000058C A3 [00000000]                   	MOV	DWORD [_grade],EAX
   508 00000591 89 F8                           	MOV	EAX,EDI
   509 00000593 8B 4C D6 F0                     	MOV	ECX,DWORD [-16+ESI+EDX*8]
   510 00000597 2B 44 D3 E8                     	SUB	EAX,DWORD [-24+EBX+EDX*8]
   511 0000059B 2B 4C D6 E8                     	SUB	ECX,DWORD [-24+ESI+EDX*8]
   512 0000059F 01 F8                           	ADD	EAX,EDI
   513 000005A1 03 4C D6 F0                     	ADD	ECX,DWORD [-16+ESI+EDX*8]
   514 000005A5 89 44 D3 F8                     	MOV	DWORD [-8+EBX+EDX*8],EAX
   515 000005A9 FF 75 CC                        	PUSH	DWORD [-52+EBP]
   516 000005AC 68 [00000000]                   	PUSH	LC0
   517 000005B1 8D 5D D4                        	LEA	EBX,DWORD [-44+EBP]
   518 000005B4 53                              	PUSH	EBX
   519 000005B5 89 4C D6 F8                     	MOV	DWORD [-8+ESI+EDX*8],ECX
   520 000005B9 E8 [00000000]                   	CALL	_sprintf
   521 000005BE 8B 55 08                        	MOV	EDX,DWORD [8+EBP]
   522 000005C1 6A 09                           	PUSH	9
   523 000005C3 53                              	PUSH	EBX
   524 000005C4 6A 07                           	PUSH	7
   525 000005C6 6A 0A                           	PUSH	10
   526 000005C8 6A 00                           	PUSH	0
   527 000005CA 8B 42 04                        	MOV	EAX,DWORD [4+EDX]
   528 000005CD 99                              	CDQ
   529 000005CE F7 7D D0                        	IDIV	DWORD [-48+EBP]
   530 000005D1 83 E8 28                        	SUB	EAX,40
   531 000005D4 50                              	PUSH	EAX
   532 000005D5 FF 75 08                        	PUSH	DWORD [8+EBP]
   533 000005D8 E8 [00000000]                   	CALL	_putfonts8_asc_sht
   534 000005DD 8B 15 [00000078]                	MOV	EDX,DWORD [_snake+8]
   535 000005E3 A1 [00000074]                   	MOV	EAX,DWORD [_snake+4]
   536 000005E8 83 C4 28                        	ADD	ESP,40
   537 000005EB 01 45 0C                        	ADD	DWORD [12+EBP],EAX
   538 000005EE 01 55 10                        	ADD	DWORD [16+EBP],EDX
   539 000005F1 6B 4D 0C 14                     	IMUL	ECX,DWORD [12+EBP],20
   540 000005F5 6B 55 10 14                     	IMUL	EDX,DWORD [16+EBP],20
   541 000005F9 8D 41 14                        	LEA	EAX,DWORD [20+ECX]
   542 000005FC 50                              	PUSH	EAX
   543 000005FD 8D 42 14                        	LEA	EAX,DWORD [20+EDX]
   544 00000600 50                              	PUSH	EAX
   545 00000601 8B 45 08                        	MOV	EAX,DWORD [8+EBP]
   546 00000604 51                              	PUSH	ECX
   547 00000605 52                              	PUSH	EDX
   548 00000606 6A 00                           	PUSH	0
   549 00000608 FF 70 04                        	PUSH	DWORD [4+EAX]
   550 0000060B FF 30                           	PUSH	DWORD [EAX]
   551 0000060D E8 [00000000]                   	CALL	_boxfill8
   552 00000612 FF 75 08                        	PUSH	DWORD [8+EBP]
   553 00000615 E8 FFFFFCFF                     	CALL	_RandFood
   554 0000061A B8 00000002                     	MOV	EAX,2
   555 0000061F E9 FFFFFF2B                     	JMP	L96
   556                                          [SECTION .data]
   557 0000000A                                 LC1:
   558 0000000A 46 41 49 4C 21 21 00            	DB	"FAIL!!",0x00
   559 00000011 00 00 00 00 00 00 00 00 00 00   	RESB	13
       0000001B 00 00 00 
   560 0000001E                                 LC3:
   561 0000001E 50 72 65 73 73 20 45 6E 74 65   	DB	"Press Enter To Continue",0x00
       00000028 72 20 54 6F 20 43 6F 6E 74 69 
       00000032 6E 75 65 00 
   562 00000036 00 00 00 00 00 00               	RESB	6
   563 0000003C                                 LC2:
   564 0000003C 59 6F 75 72 20 53 63 6F 72 65   	DB	"Your Score:%d",0x00
       00000046 3A 25 64 00 
   565 0000004A                                 LC4:
   566 0000004A 3C 3C 42 61 63 6B 20 54 6F 20   	DB	"<<Back To Menu",0x00
       00000054 4D 65 6E 75 00 
   567 00000059                                 LC5:
   568 00000059 4E 65 77 20 47 61 6D 65 3E 3E   	DB	"New Game>>",0x00
       00000063 00 
   569                                          [SECTION .text]
   570 00000624                                 	GLOBAL	_draw_fail
   571 00000624                                 _draw_fail:
   572 00000624 55                              	PUSH	EBP
   573 00000625 89 E5                           	MOV	EBP,ESP
   574 00000627 57                              	PUSH	EDI
   575 00000628 56                              	PUSH	ESI
   576 00000629 BE [0000000A]                   	MOV	ESI,LC1
   577 0000062E 53                              	PUSH	EBX
   578 0000062F 8D 7D D4                        	LEA	EDI,DWORD [-44+EBP]
   579 00000632 83 EC 40                        	SUB	ESP,64
   580 00000635 BB 00000002                     	MOV	EBX,2
   581 0000063A 8B 55 08                        	MOV	EDX,DWORD [8+EBP]
   582 0000063D 8B 42 08                        	MOV	EAX,DWORD [8+EDX]
   583 00000640 83 E8 14                        	SUB	EAX,20
   584 00000643 50                              	PUSH	EAX
   585 00000644 8B 52 04                        	MOV	EDX,DWORD [4+EDX]
   586 00000647 8D 42 EC                        	LEA	EAX,DWORD [-20+EDX]
   587 0000064A 50                              	PUSH	EAX
   588 0000064B 6A 14                           	PUSH	20
   589 0000064D 6A 14                           	PUSH	20
   590 0000064F 6A 00                           	PUSH	0
   591 00000651 52                              	PUSH	EDX
   592 00000652 8B 55 08                        	MOV	EDX,DWORD [8+EBP]
   593 00000655 FF 32                           	PUSH	DWORD [EDX]
   594 00000657 E8 [00000000]                   	CALL	_boxfill8
   595 0000065C 8D 55 D4                        	LEA	EDX,DWORD [-44+EBP]
   596 0000065F FC                              	CLD
   597 00000660 B9 00000007                     	MOV	ECX,7
   598 00000665 31 C0                           	XOR	EAX,EAX
   599 00000667 F3                              	REP
   600 00000668 A4                              	MOVSB
   601 00000669 8D 7D DB                        	LEA	EDI,DWORD [-37+EBP]
   602 0000066C B9 0000000D                     	MOV	ECX,13
   603 00000671 F3                              	REP
   604 00000672 AA                              	STOSB
   605 00000673 6A 07                           	PUSH	7
   606 00000675 8D 7D D4                        	LEA	EDI,DWORD [-44+EBP]
   607 00000678 52                              	PUSH	EDX
   608 00000679 BE [0000001E]                   	MOV	ESI,LC3
   609 0000067E 6A 08                           	PUSH	8
   610 00000680 8B 55 08                        	MOV	EDX,DWORD [8+EBP]
   611 00000683 6A 01                           	PUSH	1
   612 00000685 8B 42 08                        	MOV	EAX,DWORD [8+EDX]
   613 00000688 99                              	CDQ
   614 00000689 F7 FB                           	IDIV	EBX
   615 0000068B 8B 55 08                        	MOV	EDX,DWORD [8+EBP]
   616 0000068E 83 E8 3C                        	SUB	EAX,60
   617 00000691 50                              	PUSH	EAX
   618 00000692 8B 42 04                        	MOV	EAX,DWORD [4+EDX]
   619 00000695 99                              	CDQ
   620 00000696 F7 FB                           	IDIV	EBX
   621 00000698 83 E8 64                        	SUB	EAX,100
   622 0000069B 50                              	PUSH	EAX
   623 0000069C FF 75 08                        	PUSH	DWORD [8+EBP]
   624 0000069F E8 [00000000]                   	CALL	_putfonts8_asc_sht
   625 000006A4 83 C4 38                        	ADD	ESP,56
   626 000006A7 6A 1A                           	PUSH	26
   627 000006A9 68 [00000000]                   	PUSH	_fifo
   628 000006AE FF 35 [00000000]                	PUSH	DWORD [_timer4]
   629 000006B4 E8 [00000000]                   	CALL	_timer_init
   630 000006B9 8D 45 D4                        	LEA	EAX,DWORD [-44+EBP]
   631 000006BC FF 35 [00000000]                	PUSH	DWORD [_grade]
   632 000006C2 68 [0000003C]                   	PUSH	LC2
   633 000006C7 50                              	PUSH	EAX
   634 000006C8 E8 [00000000]                   	CALL	_sprintf
   635 000006CD 8D 55 D4                        	LEA	EDX,DWORD [-44+EBP]
   636 000006D0 FC                              	CLD
   637 000006D1 31 C0                           	XOR	EAX,EAX
   638 000006D3 83 C9 FF                        	OR	ECX,-1
   639 000006D6 F2                              	REPNE
   640 000006D7 AE                              	SCASB
   641 000006D8 F7 D1                           	NOT	ECX
   642 000006DA 51                              	PUSH	ECX
   643 000006DB 8D 7D B4                        	LEA	EDI,DWORD [-76+EBP]
   644 000006DE 52                              	PUSH	EDX
   645 000006DF 8B 55 08                        	MOV	EDX,DWORD [8+EBP]
   646 000006E2 6A 08                           	PUSH	8
   647 000006E4 6A 01                           	PUSH	1
   648 000006E6 8B 42 08                        	MOV	EAX,DWORD [8+EDX]
   649 000006E9 99                              	CDQ
   650 000006EA F7 FB                           	IDIV	EBX
   651 000006EC 8B 55 08                        	MOV	EDX,DWORD [8+EBP]
   652 000006EF 83 E8 23                        	SUB	EAX,35
   653 000006F2 50                              	PUSH	EAX
   654 000006F3 8B 42 04                        	MOV	EAX,DWORD [4+EDX]
   655 000006F6 99                              	CDQ
   656 000006F7 F7 FB                           	IDIV	EBX
   657 000006F9 83 E8 64                        	SUB	EAX,100
   658 000006FC 50                              	PUSH	EAX
   659 000006FD FF 75 08                        	PUSH	DWORD [8+EBP]
   660 00000700 E8 [00000000]                   	CALL	_putfonts8_asc_sht
   661 00000705 31 C0                           	XOR	EAX,EAX
   662 00000707 FC                              	CLD
   663 00000708 B9 00000006                     	MOV	ECX,6
   664 0000070D 8D 55 B4                        	LEA	EDX,DWORD [-76+EBP]
   665 00000710 F3                              	REP
   666 00000711 A5                              	MOVSD
   667 00000712 C7 45 CC 00000000               	MOV	DWORD [-52+EBP],0
   668 00000719 66 C7 45 D0 0000                	MOV	WORD [-48+EBP],0
   669 0000071F 89 D7                           	MOV	EDI,EDX
   670 00000721 83 C9 FF                        	OR	ECX,-1
   671 00000724 F2                              	REPNE
   672 00000725 AE                              	SCASB
   673 00000726 83 C4 34                        	ADD	ESP,52
   674 00000729 F7 D1                           	NOT	ECX
   675 0000072B 51                              	PUSH	ECX
   676 0000072C 52                              	PUSH	EDX
   677 0000072D 8B 55 08                        	MOV	EDX,DWORD [8+EBP]
   678 00000730 6A 08                           	PUSH	8
   679 00000732 6A 01                           	PUSH	1
   680 00000734 8B 42 08                        	MOV	EAX,DWORD [8+EDX]
   681 00000737 99                              	CDQ
   682 00000738 F7 FB                           	IDIV	EBX
   683 0000073A 8B 55 08                        	MOV	EDX,DWORD [8+EBP]
   684 0000073D 83 E8 0A                        	SUB	EAX,10
   685 00000740 50                              	PUSH	EAX
   686 00000741 8B 42 04                        	MOV	EAX,DWORD [4+EDX]
   687 00000744 99                              	CDQ
   688 00000745 F7 FB                           	IDIV	EBX
   689 00000747 83 E8 64                        	SUB	EAX,100
   690 0000074A 50                              	PUSH	EAX
   691 0000074B FF 75 08                        	PUSH	DWORD [8+EBP]
   692 0000074E E8 [00000000]                   	CALL	_putfonts8_asc_sht
   693 00000753 8D 45 D4                        	LEA	EAX,DWORD [-44+EBP]
   694 00000756 68 [0000004A]                   	PUSH	LC4
   695 0000075B 50                              	PUSH	EAX
   696 0000075C C7 05 [00000000] 00000000       	MOV	DWORD [_grade],0
   697 00000766 E8 [00000000]                   	CALL	_sprintf
   698 0000076B 8D 55 D4                        	LEA	EDX,DWORD [-44+EBP]
   699 0000076E 83 C4 24                        	ADD	ESP,36
   700 00000771 6A 0F                           	PUSH	15
   701 00000773 6A 03                           	PUSH	3
   702 00000775 52                              	PUSH	EDX
   703 00000776 6A 64                           	PUSH	100
   704 00000778 6A 64                           	PUSH	100
   705 0000077A FF 75 08                        	PUSH	DWORD [8+EBP]
   706 0000077D E8 [00000000]                   	CALL	_draw_button
   707 00000782 8D 45 D4                        	LEA	EAX,DWORD [-44+EBP]
   708 00000785 68 [00000059]                   	PUSH	LC5
   709 0000078A 50                              	PUSH	EAX
   710 0000078B E8 [00000000]                   	CALL	_sprintf
   711 00000790 8D 55 D4                        	LEA	EDX,DWORD [-44+EBP]
   712 00000793 83 C4 20                        	ADD	ESP,32
   713 00000796 6A 0F                           	PUSH	15
   714 00000798 6A 02                           	PUSH	2
   715 0000079A 52                              	PUSH	EDX
   716 0000079B 8B 55 08                        	MOV	EDX,DWORD [8+EBP]
   717 0000079E 8B 42 08                        	MOV	EAX,DWORD [8+EDX]
   718 000007A1 83 E8 64                        	SUB	EAX,100
   719 000007A4 50                              	PUSH	EAX
   720 000007A5 8B 42 04                        	MOV	EAX,DWORD [4+EDX]
   721 000007A8 2D 000000C8                     	SUB	EAX,200
   722 000007AD 50                              	PUSH	EAX
   723 000007AE 52                              	PUSH	EDX
   724 000007AF E8 [00000000]                   	CALL	_draw_button
   725 000007B4 8D 65 F4                        	LEA	ESP,DWORD [-12+EBP]
   726 000007B7 5B                              	POP	EBX
   727 000007B8 5E                              	POP	ESI
   728 000007B9 5F                              	POP	EDI
   729 000007BA 5D                              	POP	EBP
   730 000007BB C3                              	RET
   731 000007BC                                 	GLOBAL	_keyfifo
   732                                          [SECTION .data]
   733 00000064                                 	ALIGNB	4
   734 00000064                                 _keyfifo:
   735 00000064 00 00 00 00                     	RESB	4
   736 00000068                                 	GLOBAL	_keydata0
   737                                          [SECTION .data]
   738 00000068                                 	ALIGNB	4
   739 00000068                                 _keydata0:
   740 00000068 00 00 00 00                     	RESB	4
   741 0000006C                                 	GLOBAL	_snake
   742                                          [SECTION .data]
   743 0000006C 00 00 00 00                     	ALIGNB	8
   744 00000070                                 _snake:
   745 00000070 00 00 00 00 00 00 00 00 00 00   	RESB	12
       0000007A 00 00 
   746 0000007C                                 	GLOBAL	_body
   747                                          [SECTION .data]
   748 0000007C 00 00 00 00                     	ALIGNB	16
   749 00000080                                 _body:
   750 00000080 00 00 00 00 00 00 00 00 00 00   	RESB	9000
       0000008A 00 00 00 00 00 00 00 00 00 00 
       00000094 00 00 00 00 00 00 00 00 00 00 
       0000009E 00 00 00 00 00 00 00 00 00 00 
       000000A8 00 00 00 00 00 00 00 00 00 00 
       000000B2 00 00 00 00 00 00 00 00 00 00 
       000000BC 00 00 00 00 00 00 00 00 00 00 
       000000C6 00 00 00 00 00 00 00 00 00 00 
       000000D0 00 00 00 00 00 00 00 00 00 00 
       000000DA 00 00 00 00 00 00 00 00 00 00 
       000000E4 00 00 00 00 00 00 00 00 00 00 
       000000EE 00 00 00 00 00 00 00 00 00 00 
       000000F8 00 00 00 00 00 00 00 00 00 00 
       00000102 00 00 00 00 00 00 00 00 00 00 
       0000010C 00 00 00 00 00 00 00 00 00 00 
       00000116 00 00 00 00 00 00 00 00 00 00 
       00000120 00 00 00 00 00 00 00 00 00 00 
       0000012A 00 00 00 00 00 00 00 00 00 00 
       00000134 00 00 00 00 00 00 00 00 00 00 
       0000013E 00 00 00 00 00 00 00 00 00 00 
       00000148 00 00 00 00 00 00 00 00 00 00 
       00000152 00 00 00 00 00 00 00 00 00 00 
       0000015C 00 00 00 00 00 00 00 00 00 00 
       00000166 00 00 00 00 00 00 00 00 00 00 
       00000170 00 00 00 00 00 00 00 00 00 00 
       0000017A 00 00 00 00 00 00 00 00 00 00 
       00000184 00 00 00 00 00 00 00 00 00 00 
       0000018E 00 00 00 00 00 00 00 00 00 00 
       00000198 00 00 00 00 00 00 00 00 00 00 
       000001A2 00 00 00 00 00 00 00 00 00 00 
       000001AC 00 00 00 00 00 00 00 00 00 00 
       000001B6 00 00 00 00 00 00 00 00 00 00 
       000001C0 00 00 00 00 00 00 00 00 00 00 
       000001CA 00 00 00 00 00 00 00 00 00 00 
       000001D4 00 00 00 00 00 00 00 00 00 00 
       000001DE 00 00 00 00 00 00 00 00 00 00 
       000001E8 00 00 00 00 00 00 00 00 00 00 
       000001F2 00 00 00 00 00 00 00 00 00 00 
       000001FC 00 00 00 00 00 00 00 00 00 00 
       00000206 00 00 00 00 00 00 00 00 00 00 
       00000210 00 00 00 00 00 00 00 00 00 00 
       0000021A 00 00 00 00 00 00 00 00 00 00 
       00000224 00 00 00 00 00 00 00 00 00 00 
       0000022E 00 00 00 00 00 00 00 00 00 00 
       00000238 00 00 00 00 00 00 00 00 00 00 
       00000242 00 00 00 00 00 00 00 00 00 00 
       0000024C 00 00 00 00 00 00 00 00 00 00 
       00000256 00 00 00 00 00 00 00 00 00 00 
       00000260 00 00 00 00 00 00 00 00 00 00 
       0000026A 00 00 00 00 00 00 00 00 00 00 
       00000274 00 00 00 00 00 00 00 00 00 00 
       0000027E 00 00 00 00 00 00 00 00 00 00 
       00000288 00 00 00 00 00 00 00 00 00 00 
       00000292 00 00 00 00 00 00 00 00 00 00 
       0000029C 00 00 00 00 00 00 00 00 00 00 
       000002A6 00 00 00 00 00 00 00 00 00 00 
       000002B0 00 00 00 00 00 00 00 00 00 00 
       000002BA 00 00 00 00 00 00 00 00 00 00 
       000002C4 00 00 00 00 00 00 00 00 00 00 
       000002CE 00 00 00 00 00 00 00 00 00 00 
       000002D8 00 00 00 00 00 00 00 00 00 00 
       000002E2 00 00 00 00 00 00 00 00 00 00 
       000002EC 00 00 00 00 00 00 00 00 00 00 
       000002F6 00 00 00 00 00 00 00 00 00 00 
       00000300 00 00 00 00 00 00 00 00 00 00 
       0000030A 00 00 00 00 00 00 00 00 00 00 
       00000314 00 00 00 00 00 00 00 00 00 00 
       0000031E 00 00 00 00 00 00 00 00 00 00 
       00000328 00 00 00 00 00 00 00 00 00 00 
       00000332 00 00 00 00 00 00 00 00 00 00 
       0000033C 00 00 00 00 00 00 00 00 00 00 
       00000346 00 00 00 00 00 00 00 00 00 00 
       00000350 00 00 00 00 00 00 00 00 00 00 
       0000035A 00 00 00 00 00 00 00 00 00 00 
       00000364 00 00 00 00 00 00 00 00 00 00 
       0000036E 00 00 00 00 00 00 00 00 00 00 
       00000378 00 00 00 00 00 00 00 00 00 00 
       00000382 00 00 00 00 00 00 00 00 00 00 
       0000038C 00 00 00 00 00 00 00 00 00 00 
       00000396 00 00 00 00 00 00 00 00 00 00 
       000003A0 00 00 00 00 00 00 00 00 00 00 
       000003AA 00 00 00 00 00 00 00 00 00 00 
       000003B4 00 00 00 00 00 00 00 00 00 00 
       000003BE 00 00 00 00 00 00 00 00 00 00 
       000003C8 00 00 00 00 00 00 00 00 00 00 
       000003D2 00 00 00 00 00 00 00 00 00 00 
       000003DC 00 00 00 00 00 00 00 00 00 00 
       000003E6 00 00 00 00 00 00 00 00 00 00 
       000003F0 00 00 00 00 00 00 00 00 00 00 
       000003FA 00 00 00 00 00 00 00 00 00 00 
       00000404 00 00 00 00 00 00 00 00 00 00 
       0000040E 00 00 00 00 00 00 00 00 00 00 
       00000418 00 00 00 00 00 00 00 00 00 00 
       00000422 00 00 00 00 00 00 00 00 00 00 
       0000042C 00 00 00 00 00 00 00 00 00 00 
       00000436 00 00 00 00 00 00 00 00 00 00 
       00000440 00 00 00 00 00 00 00 00 00 00 
       0000044A 00 00 00 00 00 00 00 00 00 00 
       00000454 00 00 00 00 00 00 00 00 00 00 
       0000045E 00 00 00 00 00 00 00 00 00 00 
       00000468 00 00 00 00 00 00 00 00 00 00 
       00000472 00 00 00 00 00 00 00 00 00 00 
       0000047C 00 00 00 00 00 00 00 00 00 00 
       00000486 00 00 00 00 00 00 00 00 00 00 
       00000490 00 00 00 00 00 00 00 00 00 00 
       0000049A 00 00 00 00 00 00 00 00 00 00 
       000004A4 00 00 00 00 00 00 00 00 00 00 
       000004AE 00 00 00 00 00 00 00 00 00 00 
       000004B8 00 00 00 00 00 00 00 00 00 00 
       000004C2 00 00 00 00 00 00 00 00 00 00 
       000004CC 00 00 00 00 00 00 00 00 00 00 
       000004D6 00 00 00 00 00 00 00 00 00 00 
       000004E0 00 00 00 00 00 00 00 00 00 00 
       000004EA 00 00 00 00 00 00 00 00 00 00 
       000004F4 00 00 00 00 00 00 00 00 00 00 
       000004FE 00 00 00 00 00 00 00 00 00 00 
       00000508 00 00 00 00 00 00 00 00 00 00 
       00000512 00 00 00 00 00 00 00 00 00 00 
       0000051C 00 00 00 00 00 00 00 00 00 00 
       00000526 00 00 00 00 00 00 00 00 00 00 
       00000530 00 00 00 00 00 00 00 00 00 00 
       0000053A 00 00 00 00 00 00 00 00 00 00 
       00000544 00 00 00 00 00 00 00 00 00 00 
       0000054E 00 00 00 00 00 00 00 00 00 00 
       00000558 00 00 00 00 00 00 00 00 00 00 
       00000562 00 00 00 00 00 00 00 00 00 00 
       0000056C 00 00 00 00 00 00 00 00 00 00 
       00000576 00 00 00 00 00 00 00 00 00 00 
       00000580 00 00 00 00 00 00 00 00 00 00 
       0000058A 00 00 00 00 00 00 00 00 00 00 
       00000594 00 00 00 00 00 00 00 00 00 00 
       0000059E 00 00 00 00 00 00 00 00 00 00 
       000005A8 00 00 00 00 00 00 00 00 00 00 
       000005B2 00 00 00 00 00 00 00 00 00 00 
       000005BC 00 00 00 00 00 00 00 00 00 00 
       000005C6 00 00 00 00 00 00 00 00 00 00 
       000005D0 00 00 00 00 00 00 00 00 00 00 
       000005DA 00 00 00 00 00 00 00 00 00 00 
       000005E4 00 00 00 00 00 00 00 00 00 00 
       000005EE 00 00 00 00 00 00 00 00 00 00 
       000005F8 00 00 00 00 00 00 00 00 00 00 
       00000602 00 00 00 00 00 00 00 00 00 00 
       0000060C 00 00 00 00 00 00 00 00 00 00 
       00000616 00 00 00 00 00 00 00 00 00 00 
       00000620 00 00 00 00 00 00 00 00 00 00 
       0000062A 00 00 00 00 00 00 00 00 00 00 
       00000634 00 00 00 00 00 00 00 00 00 00 
       0000063E 00 00 00 00 00 00 00 00 00 00 
       00000648 00 00 00 00 00 00 00 00 00 00 
       00000652 00 00 00 00 00 00 00 00 00 00 
       0000065C 00 00 00 00 00 00 00 00 00 00 
       00000666 00 00 00 00 00 00 00 00 00 00 
       00000670 00 00 00 00 00 00 00 00 00 00 
       0000067A 00 00 00 00 00 00 00 00 00 00 
       00000684 00 00 00 00 00 00 00 00 00 00 
       0000068E 00 00 00 00 00 00 00 00 00 00 
       00000698 00 00 00 00 00 00 00 00 00 00 
       000006A2 00 00 00 00 00 00 00 00 00 00 
       000006AC 00 00 00 00 00 00 00 00 00 00 
       000006B6 00 00 00 00 00 00 00 00 00 00 
       000006C0 00 00 00 00 00 00 00 00 00 00 
       000006CA 00 00 00 00 00 00 00 00 00 00 
       000006D4 00 00 00 00 00 00 00 00 00 00 
       000006DE 00 00 00 00 00 00 00 00 00 00 
       000006E8 00 00 00 00 00 00 00 00 00 00 
       000006F2 00 00 00 00 00 00 00 00 00 00 
       000006FC 00 00 00 00 00 00 00 00 00 00 
       00000706 00 00 00 00 00 00 00 00 00 00 
       00000710 00 00 00 00 00 00 00 00 00 00 
       0000071A 00 00 00 00 00 00 00 00 00 00 
       00000724 00 00 00 00 00 00 00 00 00 00 
       0000072E 00 00 00 00 00 00 00 00 00 00 
       00000738 00 00 00 00 00 00 00 00 00 00 
       00000742 00 00 00 00 00 00 00 00 00 00 
       0000074C 00 00 00 00 00 00 00 00 00 00 
       00000756 00 00 00 00 00 00 00 00 00 00 
       00000760 00 00 00 00 00 00 00 00 00 00 
       0000076A 00 00 00 00 00 00 00 00 00 00 
       00000774 00 00 00 00 00 00 00 00 00 00 
       0000077E 00 00 00 00 00 00 00 00 00 00 
       00000788 00 00 00 00 00 00 00 00 00 00 
       00000792 00 00 00 00 00 00 00 00 00 00 
       0000079C 00 00 00 00 00 00 00 00 00 00 
       000007A6 00 00 00 00 00 00 00 00 00 00 
       000007B0 00 00 00 00 00 00 00 00 00 00 
       000007BA 00 00 00 00 00 00 00 00 00 00 
       000007C4 00 00 00 00 00 00 00 00 00 00 
       000007CE 00 00 00 00 00 00 00 00 00 00 
       000007D8 00 00 00 00 00 00 00 00 00 00 
       000007E2 00 00 00 00 00 00 00 00 00 00 
       000007EC 00 00 00 00 00 00 00 00 00 00 
       000007F6 00 00 00 00 00 00 00 00 00 00 
       00000800 00 00 00 00 00 00 00 00 00 00 
       0000080A 00 00 00 00 00 00 00 00 00 00 
       00000814 00 00 00 00 00 00 00 00 00 00 
       0000081E 00 00 00 00 00 00 00 00 00 00 
       00000828 00 00 00 00 00 00 00 00 00 00 
       00000832 00 00 00 00 00 00 00 00 00 00 
       0000083C 00 00 00 00 00 00 00 00 00 00 
       00000846 00 00 00 00 00 00 00 00 00 00 
       00000850 00 00 00 00 00 00 00 00 00 00 
       0000085A 00 00 00 00 00 00 00 00 00 00 
       00000864 00 00 00 00 00 00 00 00 00 00 
       0000086E 00 00 00 00 00 00 00 00 00 00 
       00000878 00 00 00 00 00 00 00 00 00 00 
       00000882 00 00 00 00 00 00 00 00 00 00 
       0000088C 00 00 00 00 00 00 00 00 00 00 
       00000896 00 00 00 00 00 00 00 00 00 00 
       000008A0 00 00 00 00 00 00 00 00 00 00 
       000008AA 00 00 00 00 00 00 00 00 00 00 
       000008B4 00 00 00 00 00 00 00 00 00 00 
       000008BE 00 00 00 00 00 00 00 00 00 00 
       000008C8 00 00 00 00 00 00 00 00 00 00 
       000008D2 00 00 00 00 00 00 00 00 00 00 
       000008DC 00 00 00 00 00 00 00 00 00 00 
       000008E6 00 00 00 00 00 00 00 00 00 00 
       000008F0 00 00 00 00 00 00 00 00 00 00 
       000008FA 00 00 00 00 00 00 00 00 00 00 
       00000904 00 00 00 00 00 00 00 00 00 00 
       0000090E 00 00 00 00 00 00 00 00 00 00 
       00000918 00 00 00 00 00 00 00 00 00 00 
       00000922 00 00 00 00 00 00 00 00 00 00 
       0000092C 00 00 00 00 00 00 00 00 00 00 
       00000936 00 00 00 00 00 00 00 00 00 00 
       00000940 00 00 00 00 00 00 00 00 00 00 
       0000094A 00 00 00 00 00 00 00 00 00 00 
       00000954 00 00 00 00 00 00 00 00 00 00 
       0000095E 00 00 00 00 00 00 00 00 00 00 
       00000968 00 00 00 00 00 00 00 00 00 00 
       00000972 00 00 00 00 00 00 00 00 00 00 
       0000097C 00 00 00 00 00 00 00 00 00 00 
       00000986 00 00 00 00 00 00 00 00 00 00 
       00000990 00 00 00 00 00 00 00 00 00 00 
       0000099A 00 00 00 00 00 00 00 00 00 00 
       000009A4 00 00 00 00 00 00 00 00 00 00 
       000009AE 00 00 00 00 00 00 00 00 00 00 
       000009B8 00 00 00 00 00 00 00 00 00 00 
       000009C2 00 00 00 00 00 00 00 00 00 00 
       000009CC 00 00 00 00 00 00 00 00 00 00 
       000009D6 00 00 00 00 00 00 00 00 00 00 
       000009E0 00 00 00 00 00 00 00 00 00 00 
       000009EA 00 00 00 00 00 00 00 00 00 00 
       000009F4 00 00 00 00 00 00 00 00 00 00 
       000009FE 00 00 00 00 00 00 00 00 00 00 
       00000A08 00 00 00 00 00 00 00 00 00 00 
       00000A12 00 00 00 00 00 00 00 00 00 00 
       00000A1C 00 00 00 00 00 00 00 00 00 00 
       00000A26 00 00 00 00 00 00 00 00 00 00 
       00000A30 00 00 00 00 00 00 00 00 00 00 
       00000A3A 00 00 00 00 00 00 00 00 00 00 
       00000A44 00 00 00 00 00 00 00 00 00 00 
       00000A4E 00 00 00 00 00 00 00 00 00 00 
       00000A58 00 00 00 00 00 00 00 00 00 00 
       00000A62 00 00 00 00 00 00 00 00 00 00 
       00000A6C 00 00 00 00 00 00 00 00 00 00 
       00000A76 00 00 00 00 00 00 00 00 00 00 
       00000A80 00 00 00 00 00 00 00 00 00 00 
       00000A8A 00 00 00 00 00 00 00 00 00 00 
       00000A94 00 00 00 00 00 00 00 00 00 00 
       00000A9E 00 00 00 00 00 00 00 00 00 00 
       00000AA8 00 00 00 00 00 00 00 00 00 00 
       00000AB2 00 00 00 00 00 00 00 00 00 00 
       00000ABC 00 00 00 00 00 00 00 00 00 00 
       00000AC6 00 00 00 00 00 00 00 00 00 00 
       00000AD0 00 00 00 00 00 00 00 00 00 00 
       00000ADA 00 00 00 00 00 00 00 00 00 00 
       00000AE4 00 00 00 00 00 00 00 00 00 00 
       00000AEE 00 00 00 00 00 00 00 00 00 00 
       00000AF8 00 00 00 00 00 00 00 00 00 00 
       00000B02 00 00 00 00 00 00 00 00 00 00 
       00000B0C 00 00 00 00 00 00 00 00 00 00 
       00000B16 00 00 00 00 00 00 00 00 00 00 
       00000B20 00 00 00 00 00 00 00 00 00 00 
       00000B2A 00 00 00 00 00 00 00 00 00 00 
       00000B34 00 00 00 00 00 00 00 00 00 00 
       00000B3E 00 00 00 00 00 00 00 00 00 00 
       00000B48 00 00 00 00 00 00 00 00 00 00 
       00000B52 00 00 00 00 00 00 00 00 00 00 
       00000B5C 00 00 00 00 00 00 00 00 00 00 
       00000B66 00 00 00 00 00 00 00 00 00 00 
       00000B70 00 00 00 00 00 00 00 00 00 00 
       00000B7A 00 00 00 00 00 00 00 00 00 00 
       00000B84 00 00 00 00 00 00 00 00 00 00 
       00000B8E 00 00 00 00 00 00 00 00 00 00 
       00000B98 00 00 00 00 00 00 00 00 00 00 
       00000BA2 00 00 00 00 00 00 00 00 00 00 
       00000BAC 00 00 00 00 00 00 00 00 00 00 
       00000BB6 00 00 00 00 00 00 00 00 00 00 
       00000BC0 00 00 00 00 00 00 00 00 00 00 
       00000BCA 00 00 00 00 00 00 00 00 00 00 
       00000BD4 00 00 00 00 00 00 00 00 00 00 
       00000BDE 00 00 00 00 00 00 00 00 00 00 
       00000BE8 00 00 00 00 00 00 00 00 00 00 
       00000BF2 00 00 00 00 00 00 00 00 00 00 
       00000BFC 00 00 00 00 00 00 00 00 00 00 
       00000C06 00 00 00 00 00 00 00 00 00 00 
       00000C10 00 00 00 00 00 00 00 00 00 00 
       00000C1A 00 00 00 00 00 00 00 00 00 00 
       00000C24 00 00 00 00 00 00 00 00 00 00 
       00000C2E 00 00 00 00 00 00 00 00 00 00 
       00000C38 00 00 00 00 00 00 00 00 00 00 
       00000C42 00 00 00 00 00 00 00 00 00 00 
       00000C4C 00 00 00 00 00 00 00 00 00 00 
       00000C56 00 00 00 00 00 00 00 00 00 00 
       00000C60 00 00 00 00 00 00 00 00 00 00 
       00000C6A 00 00 00 00 00 00 00 00 00 00 
       00000C74 00 00 00 00 00 00 00 00 00 00 
       00000C7E 00 00 00 00 00 00 00 00 00 00 
       00000C88 00 00 00 00 00 00 00 00 00 00 
       00000C92 00 00 00 00 00 00 00 00 00 00 
       00000C9C 00 00 00 00 00 00 00 00 00 00 
       00000CA6 00 00 00 00 00 00 00 00 00 00 
       00000CB0 00 00 00 00 00 00 00 00 00 00 
       00000CBA 00 00 00 00 00 00 00 00 00 00 
       00000CC4 00 00 00 00 00 00 00 00 00 00 
       00000CCE 00 00 00 00 00 00 00 00 00 00 
       00000CD8 00 00 00 00 00 00 00 00 00 00 
       00000CE2 00 00 00 00 00 00 00 00 00 00 
       00000CEC 00 00 00 00 00 00 00 00 00 00 
       00000CF6 00 00 00 00 00 00 00 00 00 00 
       00000D00 00 00 00 00 00 00 00 00 00 00 
       00000D0A 00 00 00 00 00 00 00 00 00 00 
       00000D14 00 00 00 00 00 00 00 00 00 00 
       00000D1E 00 00 00 00 00 00 00 00 00 00 
       00000D28 00 00 00 00 00 00 00 00 00 00 
       00000D32 00 00 00 00 00 00 00 00 00 00 
       00000D3C 00 00 00 00 00 00 00 00 00 00 
       00000D46 00 00 00 00 00 00 00 00 00 00 
       00000D50 00 00 00 00 00 00 00 00 00 00 
       00000D5A 00 00 00 00 00 00 00 00 00 00 
       00000D64 00 00 00 00 00 00 00 00 00 00 
       00000D6E 00 00 00 00 00 00 00 00 00 00 
       00000D78 00 00 00 00 00 00 00 00 00 00 
       00000D82 00 00 00 00 00 00 00 00 00 00 
       00000D8C 00 00 00 00 00 00 00 00 00 00 
       00000D96 00 00 00 00 00 00 00 00 00 00 
       00000DA0 00 00 00 00 00 00 00 00 00 00 
       00000DAA 00 00 00 00 00 00 00 00 00 00 
       00000DB4 00 00 00 00 00 00 00 00 00 00 
       00000DBE 00 00 00 00 00 00 00 00 00 00 
       00000DC8 00 00 00 00 00 00 00 00 00 00 
       00000DD2 00 00 00 00 00 00 00 00 00 00 
       00000DDC 00 00 00 00 00 00 00 00 00 00 
       00000DE6 00 00 00 00 00 00 00 00 00 00 
       00000DF0 00 00 00 00 00 00 00 00 00 00 
       00000DFA 00 00 00 00 00 00 00 00 00 00 
       00000E04 00 00 00 00 00 00 00 00 00 00 
       00000E0E 00 00 00 00 00 00 00 00 00 00 
       00000E18 00 00 00 00 00 00 00 00 00 00 
       00000E22 00 00 00 00 00 00 00 00 00 00 
       00000E2C 00 00 00 00 00 00 00 00 00 00 
       00000E36 00 00 00 00 00 00 00 00 00 00 
       00000E40 00 00 00 00 00 00 00 00 00 00 
       00000E4A 00 00 00 00 00 00 00 00 00 00 
       00000E54 00 00 00 00 00 00 00 00 00 00 
       00000E5E 00 00 00 00 00 00 00 00 00 00 
       00000E68 00 00 00 00 00 00 00 00 00 00 
       00000E72 00 00 00 00 00 00 00 00 00 00 
       00000E7C 00 00 00 00 00 00 00 00 00 00 
       00000E86 00 00 00 00 00 00 00 00 00 00 
       00000E90 00 00 00 00 00 00 00 00 00 00 
       00000E9A 00 00 00 00 00 00 00 00 00 00 
       00000EA4 00 00 00 00 00 00 00 00 00 00 
       00000EAE 00 00 00 00 00 00 00 00 00 00 
       00000EB8 00 00 00 00 00 00 00 00 00 00 
       00000EC2 00 00 00 00 00 00 00 00 00 00 
       00000ECC 00 00 00 00 00 00 00 00 00 00 
       00000ED6 00 00 00 00 00 00 00 00 00 00 
       00000EE0 00 00 00 00 00 00 00 00 00 00 
       00000EEA 00 00 00 00 00 00 00 00 00 00 
       00000EF4 00 00 00 00 00 00 00 00 00 00 
       00000EFE 00 00 00 00 00 00 00 00 00 00 
       00000F08 00 00 00 00 00 00 00 00 00 00 
       00000F12 00 00 00 00 00 00 00 00 00 00 
       00000F1C 00 00 00 00 00 00 00 00 00 00 
       00000F26 00 00 00 00 00 00 00 00 00 00 
       00000F30 00 00 00 00 00 00 00 00 00 00 
       00000F3A 00 00 00 00 00 00 00 00 00 00 
       00000F44 00 00 00 00 00 00 00 00 00 00 
       00000F4E 00 00 00 00 00 00 00 00 00 00 
       00000F58 00 00 00 00 00 00 00 00 00 00 
       00000F62 00 00 00 00 00 00 00 00 00 00 
       00000F6C 00 00 00 00 00 00 00 00 00 00 
       00000F76 00 00 00 00 00 00 00 00 00 00 
       00000F80 00 00 00 00 00 00 00 00 00 00 
       00000F8A 00 00 00 00 00 00 00 00 00 00 
       00000F94 00 00 00 00 00 00 00 00 00 00 
       00000F9E 00 00 00 00 00 00 00 00 00 00 
       00000FA8 00 00 00 00 00 00 00 00 00 00 
       00000FB2 00 00 00 00 00 00 00 00 00 00 
       00000FBC 00 00 00 00 00 00 00 00 00 00 
       00000FC6 00 00 00 00 00 00 00 00 00 00 
       00000FD0 00 00 00 00 00 00 00 00 00 00 
       00000FDA 00 00 00 00 00 00 00 00 00 00 
       00000FE4 00 00 00 00 00 00 00 00 00 00 
       00000FEE 00 00 00 00 00 00 00 00 00 00 
       00000FF8 00 00 00 00 00 00 00 00 00 00 
       00001002 00 00 00 00 00 00 00 00 00 00 
       0000100C 00 00 00 00 00 00 00 00 00 00 
       00001016 00 00 00 00 00 00 00 00 00 00 
       00001020 00 00 00 00 00 00 00 00 00 00 
       0000102A 00 00 00 00 00 00 00 00 00 00 
       00001034 00 00 00 00 00 00 00 00 00 00 
       0000103E 00 00 00 00 00 00 00 00 00 00 
       00001048 00 00 00 00 00 00 00 00 00 00 
       00001052 00 00 00 00 00 00 00 00 00 00 
       0000105C 00 00 00 00 00 00 00 00 00 00 
       00001066 00 00 00 00 00 00 00 00 00 00 
       00001070 00 00 00 00 00 00 00 00 00 00 
       0000107A 00 00 00 00 00 00 00 00 00 00 
       00001084 00 00 00 00 00 00 00 00 00 00 
       0000108E 00 00 00 00 00 00 00 00 00 00 
       00001098 00 00 00 00 00 00 00 00 00 00 
       000010A2 00 00 00 00 00 00 00 00 00 00 
       000010AC 00 00 00 00 00 00 00 00 00 00 
       000010B6 00 00 00 00 00 00 00 00 00 00 
       000010C0 00 00 00 00 00 00 00 00 00 00 
       000010CA 00 00 00 00 00 00 00 00 00 00 
       000010D4 00 00 00 00 00 00 00 00 00 00 
       000010DE 00 00 00 00 00 00 00 00 00 00 
       000010E8 00 00 00 00 00 00 00 00 00 00 
       000010F2 00 00 00 00 00 00 00 00 00 00 
       000010FC 00 00 00 00 00 00 00 00 00 00 
       00001106 00 00 00 00 00 00 00 00 00 00 
       00001110 00 00 00 00 00 00 00 00 00 00 
       0000111A 00 00 00 00 00 00 00 00 00 00 
       00001124 00 00 00 00 00 00 00 00 00 00 
       0000112E 00 00 00 00 00 00 00 00 00 00 
       00001138 00 00 00 00 00 00 00 00 00 00 
       00001142 00 00 00 00 00 00 00 00 00 00 
       0000114C 00 00 00 00 00 00 00 00 00 00 
       00001156 00 00 00 00 00 00 00 00 00 00 
       00001160 00 00 00 00 00 00 00 00 00 00 
       0000116A 00 00 00 00 00 00 00 00 00 00 
       00001174 00 00 00 00 00 00 00 00 00 00 
       0000117E 00 00 00 00 00 00 00 00 00 00 
       00001188 00 00 00 00 00 00 00 00 00 00 
       00001192 00 00 00 00 00 00 00 00 00 00 
       0000119C 00 00 00 00 00 00 00 00 00 00 
       000011A6 00 00 00 00 00 00 00 00 00 00 
       000011B0 00 00 00 00 00 00 00 00 00 00 
       000011BA 00 00 00 00 00 00 00 00 00 00 
       000011C4 00 00 00 00 00 00 00 00 00 00 
       000011CE 00 00 00 00 00 00 00 00 00 00 
       000011D8 00 00 00 00 00 00 00 00 00 00 
       000011E2 00 00 00 00 00 00 00 00 00 00 
       000011EC 00 00 00 00 00 00 00 00 00 00 
       000011F6 00 00 00 00 00 00 00 00 00 00 
       00001200 00 00 00 00 00 00 00 00 00 00 
       0000120A 00 00 00 00 00 00 00 00 00 00 
       00001214 00 00 00 00 00 00 00 00 00 00 
       0000121E 00 00 00 00 00 00 00 00 00 00 
       00001228 00 00 00 00 00 00 00 00 00 00 
       00001232 00 00 00 00 00 00 00 00 00 00 
       0000123C 00 00 00 00 00 00 00 00 00 00 
       00001246 00 00 00 00 00 00 00 00 00 00 
       00001250 00 00 00 00 00 00 00 00 00 00 
       0000125A 00 00 00 00 00 00 00 00 00 00 
       00001264 00 00 00 00 00 00 00 00 00 00 
       0000126E 00 00 00 00 00 00 00 00 00 00 
       00001278 00 00 00 00 00 00 00 00 00 00 
       00001282 00 00 00 00 00 00 00 00 00 00 
       0000128C 00 00 00 00 00 00 00 00 00 00 
       00001296 00 00 00 00 00 00 00 00 00 00 
       000012A0 00 00 00 00 00 00 00 00 00 00 
       000012AA 00 00 00 00 00 00 00 00 00 00 
       000012B4 00 00 00 00 00 00 00 00 00 00 
       000012BE 00 00 00 00 00 00 00 00 00 00 
       000012C8 00 00 00 00 00 00 00 00 00 00 
       000012D2 00 00 00 00 00 00 00 00 00 00 
       000012DC 00 00 00 00 00 00 00 00 00 00 
       000012E6 00 00 00 00 00 00 00 00 00 00 
       000012F0 00 00 00 00 00 00 00 00 00 00 
       000012FA 00 00 00 00 00 00 00 00 00 00 
       00001304 00 00 00 00 00 00 00 00 00 00 
       0000130E 00 00 00 00 00 00 00 00 00 00 
       00001318 00 00 00 00 00 00 00 00 00 00 
       00001322 00 00 00 00 00 00 00 00 00 00 
       0000132C 00 00 00 00 00 00 00 00 00 00 
       00001336 00 00 00 00 00 00 00 00 00 00 
       00001340 00 00 00 00 00 00 00 00 00 00 
       0000134A 00 00 00 00 00 00 00 00 00 00 
       00001354 00 00 00 00 00 00 00 00 00 00 
       0000135E 00 00 00 00 00 00 00 00 00 00 
       00001368 00 00 00 00 00 00 00 00 00 00 
       00001372 00 00 00 00 00 00 00 00 00 00 
       0000137C 00 00 00 00 00 00 00 00 00 00 
       00001386 00 00 00 00 00 00 00 00 00 00 
       00001390 00 00 00 00 00 00 00 00 00 00 
       0000139A 00 00 00 00 00 00 00 00 00 00 
       000013A4 00 00 00 00 00 00 00 00 00 00 
       000013AE 00 00 00 00 00 00 00 00 00 00 
       000013B8 00 00 00 00 00 00 00 00 00 00 
       000013C2 00 00 00 00 00 00 00 00 00 00 
       000013CC 00 00 00 00 00 00 00 00 00 00 
       000013D6 00 00 00 00 00 00 00 00 00 00 
       000013E0 00 00 00 00 00 00 00 00 00 00 
       000013EA 00 00 00 00 00 00 00 00 00 00 
       000013F4 00 00 00 00 00 00 00 00 00 00 
       000013FE 00 00 00 00 00 00 00 00 00 00 
       00001408 00 00 00 00 00 00 00 00 00 00 
       00001412 00 00 00 00 00 00 00 00 00 00 
       0000141C 00 00 00 00 00 00 00 00 00 00 
       00001426 00 00 00 00 00 00 00 00 00 00 
       00001430 00 00 00 00 00 00 00 00 00 00 
       0000143A 00 00 00 00 00 00 00 00 00 00 
       00001444 00 00 00 00 00 00 00 00 00 00 
       0000144E 00 00 00 00 00 00 00 00 00 00 
       00001458 00 00 00 00 00 00 00 00 00 00 
       00001462 00 00 00 00 00 00 00 00 00 00 
       0000146C 00 00 00 00 00 00 00 00 00 00 
       00001476 00 00 00 00 00 00 00 00 00 00 
       00001480 00 00 00 00 00 00 00 00 00 00 
       0000148A 00 00 00 00 00 00 00 00 00 00 
       00001494 00 00 00 00 00 00 00 00 00 00 
       0000149E 00 00 00 00 00 00 00 00 00 00 
       000014A8 00 00 00 00 00 00 00 00 00 00 
       000014B2 00 00 00 00 00 00 00 00 00 00 
       000014BC 00 00 00 00 00 00 00 00 00 00 
       000014C6 00 00 00 00 00 00 00 00 00 00 
       000014D0 00 00 00 00 00 00 00 00 00 00 
       000014DA 00 00 00 00 00 00 00 00 00 00 
       000014E4 00 00 00 00 00 00 00 00 00 00 
       000014EE 00 00 00 00 00 00 00 00 00 00 
       000014F8 00 00 00 00 00 00 00 00 00 00 
       00001502 00 00 00 00 00 00 00 00 00 00 
       0000150C 00 00 00 00 00 00 00 00 00 00 
       00001516 00 00 00 00 00 00 00 00 00 00 
       00001520 00 00 00 00 00 00 00 00 00 00 
       0000152A 00 00 00 00 00 00 00 00 00 00 
       00001534 00 00 00 00 00 00 00 00 00 00 
       0000153E 00 00 00 00 00 00 00 00 00 00 
       00001548 00 00 00 00 00 00 00 00 00 00 
       00001552 00 00 00 00 00 00 00 00 00 00 
       0000155C 00 00 00 00 00 00 00 00 00 00 
       00001566 00 00 00 00 00 00 00 00 00 00 
       00001570 00 00 00 00 00 00 00 00 00 00 
       0000157A 00 00 00 00 00 00 00 00 00 00 
       00001584 00 00 00 00 00 00 00 00 00 00 
       0000158E 00 00 00 00 00 00 00 00 00 00 
       00001598 00 00 00 00 00 00 00 00 00 00 
       000015A2 00 00 00 00 00 00 00 00 00 00 
       000015AC 00 00 00 00 00 00 00 00 00 00 
       000015B6 00 00 00 00 00 00 00 00 00 00 
       000015C0 00 00 00 00 00 00 00 00 00 00 
       000015CA 00 00 00 00 00 00 00 00 00 00 
       000015D4 00 00 00 00 00 00 00 00 00 00 
       000015DE 00 00 00 00 00 00 00 00 00 00 
       000015E8 00 00 00 00 00 00 00 00 00 00 
       000015F2 00 00 00 00 00 00 00 00 00 00 
       000015FC 00 00 00 00 00 00 00 00 00 00 
       00001606 00 00 00 00 00 00 00 00 00 00 
       00001610 00 00 00 00 00 00 00 00 00 00 
       0000161A 00 00 00 00 00 00 00 00 00 00 
       00001624 00 00 00 00 00 00 00 00 00 00 
       0000162E 00 00 00 00 00 00 00 00 00 00 
       00001638 00 00 00 00 00 00 00 00 00 00 
       00001642 00 00 00 00 00 00 00 00 00 00 
       0000164C 00 00 00 00 00 00 00 00 00 00 
       00001656 00 00 00 00 00 00 00 00 00 00 
       00001660 00 00 00 00 00 00 00 00 00 00 
       0000166A 00 00 00 00 00 00 00 00 00 00 
       00001674 00 00 00 00 00 00 00 00 00 00 
       0000167E 00 00 00 00 00 00 00 00 00 00 
       00001688 00 00 00 00 00 00 00 00 00 00 
       00001692 00 00 00 00 00 00 00 00 00 00 
       0000169C 00 00 00 00 00 00 00 00 00 00 
       000016A6 00 00 00 00 00 00 00 00 00 00 
       000016B0 00 00 00 00 00 00 00 00 00 00 
       000016BA 00 00 00 00 00 00 00 00 00 00 
       000016C4 00 00 00 00 00 00 00 00 00 00 
       000016CE 00 00 00 00 00 00 00 00 00 00 
       000016D8 00 00 00 00 00 00 00 00 00 00 
       000016E2 00 00 00 00 00 00 00 00 00 00 
       000016EC 00 00 00 00 00 00 00 00 00 00 
       000016F6 00 00 00 00 00 00 00 00 00 00 
       00001700 00 00 00 00 00 00 00 00 00 00 
       0000170A 00 00 00 00 00 00 00 00 00 00 
       00001714 00 00 00 00 00 00 00 00 00 00 
       0000171E 00 00 00 00 00 00 00 00 00 00 
       00001728 00 00 00 00 00 00 00 00 00 00 
       00001732 00 00 00 00 00 00 00 00 00 00 
       0000173C 00 00 00 00 00 00 00 00 00 00 
       00001746 00 00 00 00 00 00 00 00 00 00 
       00001750 00 00 00 00 00 00 00 00 00 00 
       0000175A 00 00 00 00 00 00 00 00 00 00 
       00001764 00 00 00 00 00 00 00 00 00 00 
       0000176E 00 00 00 00 00 00 00 00 00 00 
       00001778 00 00 00 00 00 00 00 00 00 00 
       00001782 00 00 00 00 00 00 00 00 00 00 
       0000178C 00 00 00 00 00 00 00 00 00 00 
       00001796 00 00 00 00 00 00 00 00 00 00 
       000017A0 00 00 00 00 00 00 00 00 00 00 
       000017AA 00 00 00 00 00 00 00 00 00 00 
       000017B4 00 00 00 00 00 00 00 00 00 00 
       000017BE 00 00 00 00 00 00 00 00 00 00 
       000017C8 00 00 00 00 00 00 00 00 00 00 
       000017D2 00 00 00 00 00 00 00 00 00 00 
       000017DC 00 00 00 00 00 00 00 00 00 00 
       000017E6 00 00 00 00 00 00 00 00 00 00 
       000017F0 00 00 00 00 00 00 00 00 00 00 
       000017FA 00 00 00 00 00 00 00 00 00 00 
       00001804 00 00 00 00 00 00 00 00 00 00 
       0000180E 00 00 00 00 00 00 00 00 00 00 
       00001818 00 00 00 00 00 00 00 00 00 00 
       00001822 00 00 00 00 00 00 00 00 00 00 
       0000182C 00 00 00 00 00 00 00 00 00 00 
       00001836 00 00 00 00 00 00 00 00 00 00 
       00001840 00 00 00 00 00 00 00 00 00 00 
       0000184A 00 00 00 00 00 00 00 00 00 00 
       00001854 00 00 00 00 00 00 00 00 00 00 
       0000185E 00 00 00 00 00 00 00 00 00 00 
       00001868 00 00 00 00 00 00 00 00 00 00 
       00001872 00 00 00 00 00 00 00 00 00 00 
       0000187C 00 00 00 00 00 00 00 00 00 00 
       00001886 00 00 00 00 00 00 00 00 00 00 
       00001890 00 00 00 00 00 00 00 00 00 00 
       0000189A 00 00 00 00 00 00 00 00 00 00 
       000018A4 00 00 00 00 00 00 00 00 00 00 
       000018AE 00 00 00 00 00 00 00 00 00 00 
       000018B8 00 00 00 00 00 00 00 00 00 00 
       000018C2 00 00 00 00 00 00 00 00 00 00 
       000018CC 00 00 00 00 00 00 00 00 00 00 
       000018D6 00 00 00 00 00 00 00 00 00 00 
       000018E0 00 00 00 00 00 00 00 00 00 00 
       000018EA 00 00 00 00 00 00 00 00 00 00 
       000018F4 00 00 00 00 00 00 00 00 00 00 
       000018FE 00 00 00 00 00 00 00 00 00 00 
       00001908 00 00 00 00 00 00 00 00 00 00 
       00001912 00 00 00 00 00 00 00 00 00 00 
       0000191C 00 00 00 00 00 00 00 00 00 00 
       00001926 00 00 00 00 00 00 00 00 00 00 
       00001930 00 00 00 00 00 00 00 00 00 00 
       0000193A 00 00 00 00 00 00 00 00 00 00 
       00001944 00 00 00 00 00 00 00 00 00 00 
       0000194E 00 00 00 00 00 00 00 00 00 00 
       00001958 00 00 00 00 00 00 00 00 00 00 
       00001962 00 00 00 00 00 00 00 00 00 00 
       0000196C 00 00 00 00 00 00 00 00 00 00 
       00001976 00 00 00 00 00 00 00 00 00 00 
       00001980 00 00 00 00 00 00 00 00 00 00 
       0000198A 00 00 00 00 00 00 00 00 00 00 
       00001994 00 00 00 00 00 00 00 00 00 00 
       0000199E 00 00 00 00 00 00 00 00 00 00 
       000019A8 00 00 00 00 00 00 00 00 00 00 
       000019B2 00 00 00 00 00 00 00 00 00 00 
       000019BC 00 00 00 00 00 00 00 00 00 00 
       000019C6 00 00 00 00 00 00 00 00 00 00 
       000019D0 00 00 00 00 00 00 00 00 00 00 
       000019DA 00 00 00 00 00 00 00 00 00 00 
       000019E4 00 00 00 00 00 00 00 00 00 00 
       000019EE 00 00 00 00 00 00 00 00 00 00 
       000019F8 00 00 00 00 00 00 00 00 00 00 
       00001A02 00 00 00 00 00 00 00 00 00 00 
       00001A0C 00 00 00 00 00 00 00 00 00 00 
       00001A16 00 00 00 00 00 00 00 00 00 00 
       00001A20 00 00 00 00 00 00 00 00 00 00 
       00001A2A 00 00 00 00 00 00 00 00 00 00 
       00001A34 00 00 00 00 00 00 00 00 00 00 
       00001A3E 00 00 00 00 00 00 00 00 00 00 
       00001A48 00 00 00 00 00 00 00 00 00 00 
       00001A52 00 00 00 00 00 00 00 00 00 00 
       00001A5C 00 00 00 00 00 00 00 00 00 00 
       00001A66 00 00 00 00 00 00 00 00 00 00 
       00001A70 00 00 00 00 00 00 00 00 00 00 
       00001A7A 00 00 00 00 00 00 00 00 00 00 
       00001A84 00 00 00 00 00 00 00 00 00 00 
       00001A8E 00 00 00 00 00 00 00 00 00 00 
       00001A98 00 00 00 00 00 00 00 00 00 00 
       00001AA2 00 00 00 00 00 00 00 00 00 00 
       00001AAC 00 00 00 00 00 00 00 00 00 00 
       00001AB6 00 00 00 00 00 00 00 00 00 00 
       00001AC0 00 00 00 00 00 00 00 00 00 00 
       00001ACA 00 00 00 00 00 00 00 00 00 00 
       00001AD4 00 00 00 00 00 00 00 00 00 00 
       00001ADE 00 00 00 00 00 00 00 00 00 00 
       00001AE8 00 00 00 00 00 00 00 00 00 00 
       00001AF2 00 00 00 00 00 00 00 00 00 00 
       00001AFC 00 00 00 00 00 00 00 00 00 00 
       00001B06 00 00 00 00 00 00 00 00 00 00 
       00001B10 00 00 00 00 00 00 00 00 00 00 
       00001B1A 00 00 00 00 00 00 00 00 00 00 
       00001B24 00 00 00 00 00 00 00 00 00 00 
       00001B2E 00 00 00 00 00 00 00 00 00 00 
       00001B38 00 00 00 00 00 00 00 00 00 00 
       00001B42 00 00 00 00 00 00 00 00 00 00 
       00001B4C 00 00 00 00 00 00 00 00 00 00 
       00001B56 00 00 00 00 00 00 00 00 00 00 
       00001B60 00 00 00 00 00 00 00 00 00 00 
       00001B6A 00 00 00 00 00 00 00 00 00 00 
       00001B74 00 00 00 00 00 00 00 00 00 00 
       00001B7E 00 00 00 00 00 00 00 00 00 00 
       00001B88 00 00 00 00 00 00 00 00 00 00 
       00001B92 00 00 00 00 00 00 00 00 00 00 
       00001B9C 00 00 00 00 00 00 00 00 00 00 
       00001BA6 00 00 00 00 00 00 00 00 00 00 
       00001BB0 00 00 00 00 00 00 00 00 00 00 
       00001BBA 00 00 00 00 00 00 00 00 00 00 
       00001BC4 00 00 00 00 00 00 00 00 00 00 
       00001BCE 00 00 00 00 00 00 00 00 00 00 
       00001BD8 00 00 00 00 00 00 00 00 00 00 
       00001BE2 00 00 00 00 00 00 00 00 00 00 
       00001BEC 00 00 00 00 00 00 00 00 00 00 
       00001BF6 00 00 00 00 00 00 00 00 00 00 
       00001C00 00 00 00 00 00 00 00 00 00 00 
       00001C0A 00 00 00 00 00 00 00 00 00 00 
       00001C14 00 00 00 00 00 00 00 00 00 00 
       00001C1E 00 00 00 00 00 00 00 00 00 00 
       00001C28 00 00 00 00 00 00 00 00 00 00 
       00001C32 00 00 00 00 00 00 00 00 00 00 
       00001C3C 00 00 00 00 00 00 00 00 00 00 
       00001C46 00 00 00 00 00 00 00 00 00 00 
       00001C50 00 00 00 00 00 00 00 00 00 00 
       00001C5A 00 00 00 00 00 00 00 00 00 00 
       00001C64 00 00 00 00 00 00 00 00 00 00 
       00001C6E 00 00 00 00 00 00 00 00 00 00 
       00001C78 00 00 00 00 00 00 00 00 00 00 
       00001C82 00 00 00 00 00 00 00 00 00 00 
       00001C8C 00 00 00 00 00 00 00 00 00 00 
       00001C96 00 00 00 00 00 00 00 00 00 00 
       00001CA0 00 00 00 00 00 00 00 00 00 00 
       00001CAA 00 00 00 00 00 00 00 00 00 00 
       00001CB4 00 00 00 00 00 00 00 00 00 00 
       00001CBE 00 00 00 00 00 00 00 00 00 00 
       00001CC8 00 00 00 00 00 00 00 00 00 00 
       00001CD2 00 00 00 00 00 00 00 00 00 00 
       00001CDC 00 00 00 00 00 00 00 00 00 00 
       00001CE6 00 00 00 00 00 00 00 00 00 00 
       00001CF0 00 00 00 00 00 00 00 00 00 00 
       00001CFA 00 00 00 00 00 00 00 00 00 00 
       00001D04 00 00 00 00 00 00 00 00 00 00 
       00001D0E 00 00 00 00 00 00 00 00 00 00 
       00001D18 00 00 00 00 00 00 00 00 00 00 
       00001D22 00 00 00 00 00 00 00 00 00 00 
       00001D2C 00 00 00 00 00 00 00 00 00 00 
       00001D36 00 00 00 00 00 00 00 00 00 00 
       00001D40 00 00 00 00 00 00 00 00 00 00 
       00001D4A 00 00 00 00 00 00 00 00 00 00 
       00001D54 00 00 00 00 00 00 00 00 00 00 
       00001D5E 00 00 00 00 00 00 00 00 00 00 
       00001D68 00 00 00 00 00 00 00 00 00 00 
       00001D72 00 00 00 00 00 00 00 00 00 00 
       00001D7C 00 00 00 00 00 00 00 00 00 00 
       00001D86 00 00 00 00 00 00 00 00 00 00 
       00001D90 00 00 00 00 00 00 00 00 00 00 
       00001D9A 00 00 00 00 00 00 00 00 00 00 
       00001DA4 00 00 00 00 00 00 00 00 00 00 
       00001DAE 00 00 00 00 00 00 00 00 00 00 
       00001DB8 00 00 00 00 00 00 00 00 00 00 
       00001DC2 00 00 00 00 00 00 00 00 00 00 
       00001DCC 00 00 00 00 00 00 00 00 00 00 
       00001DD6 00 00 00 00 00 00 00 00 00 00 
       00001DE0 00 00 00 00 00 00 00 00 00 00 
       00001DEA 00 00 00 00 00 00 00 00 00 00 
       00001DF4 00 00 00 00 00 00 00 00 00 00 
       00001DFE 00 00 00 00 00 00 00 00 00 00 
       00001E08 00 00 00 00 00 00 00 00 00 00 
       00001E12 00 00 00 00 00 00 00 00 00 00 
       00001E1C 00 00 00 00 00 00 00 00 00 00 
       00001E26 00 00 00 00 00 00 00 00 00 00 
       00001E30 00 00 00 00 00 00 00 00 00 00 
       00001E3A 00 00 00 00 00 00 00 00 00 00 
       00001E44 00 00 00 00 00 00 00 00 00 00 
       00001E4E 00 00 00 00 00 00 00 00 00 00 
       00001E58 00 00 00 00 00 00 00 00 00 00 
       00001E62 00 00 00 00 00 00 00 00 00 00 
       00001E6C 00 00 00 00 00 00 00 00 00 00 
       00001E76 00 00 00 00 00 00 00 00 00 00 
       00001E80 00 00 00 00 00 00 00 00 00 00 
       00001E8A 00 00 00 00 00 00 00 00 00 00 
       00001E94 00 00 00 00 00 00 00 00 00 00 
       00001E9E 00 00 00 00 00 00 00 00 00 00 
       00001EA8 00 00 00 00 00 00 00 00 00 00 
       00001EB2 00 00 00 00 00 00 00 00 00 00 
       00001EBC 00 00 00 00 00 00 00 00 00 00 
       00001EC6 00 00 00 00 00 00 00 00 00 00 
       00001ED0 00 00 00 00 00 00 00 00 00 00 
       00001EDA 00 00 00 00 00 00 00 00 00 00 
       00001EE4 00 00 00 00 00 00 00 00 00 00 
       00001EEE 00 00 00 00 00 00 00 00 00 00 
       00001EF8 00 00 00 00 00 00 00 00 00 00 
       00001F02 00 00 00 00 00 00 00 00 00 00 
       00001F0C 00 00 00 00 00 00 00 00 00 00 
       00001F16 00 00 00 00 00 00 00 00 00 00 
       00001F20 00 00 00 00 00 00 00 00 00 00 
       00001F2A 00 00 00 00 00 00 00 00 00 00 
       00001F34 00 00 00 00 00 00 00 00 00 00 
       00001F3E 00 00 00 00 00 00 00 00 00 00 
       00001F48 00 00 00 00 00 00 00 00 00 00 
       00001F52 00 00 00 00 00 00 00 00 00 00 
       00001F5C 00 00 00 00 00 00 00 00 00 00 
       00001F66 00 00 00 00 00 00 00 00 00 00 
       00001F70 00 00 00 00 00 00 00 00 00 00 
       00001F7A 00 00 00 00 00 00 00 00 00 00 
       00001F84 00 00 00 00 00 00 00 00 00 00 
       00001F8E 00 00 00 00 00 00 00 00 00 00 
       00001F98 00 00 00 00 00 00 00 00 00 00 
       00001FA2 00 00 00 00 00 00 00 00 00 00 
       00001FAC 00 00 00 00 00 00 00 00 00 00 
       00001FB6 00 00 00 00 00 00 00 00 00 00 
       00001FC0 00 00 00 00 00 00 00 00 00 00 
       00001FCA 00 00 00 00 00 00 00 00 00 00 
       00001FD4 00 00 00 00 00 00 00 00 00 00 
       00001FDE 00 00 00 00 00 00 00 00 00 00 
       00001FE8 00 00 00 00 00 00 00 00 00 00 
       00001FF2 00 00 00 00 00 00 00 00 00 00 
       00001FFC 00 00 00 00 00 00 00 00 00 00 
       00002006 00 00 00 00 00 00 00 00 00 00 
       00002010 00 00 00 00 00 00 00 00 00 00 
       0000201A 00 00 00 00 00 00 00 00 00 00 
       00002024 00 00 00 00 00 00 00 00 00 00 
       0000202E 00 00 00 00 00 00 00 00 00 00 
       00002038 00 00 00 00 00 00 00 00 00 00 
       00002042 00 00 00 00 00 00 00 00 00 00 
       0000204C 00 00 00 00 00 00 00 00 00 00 
       00002056 00 00 00 00 00 00 00 00 00 00 
       00002060 00 00 00 00 00 00 00 00 00 00 
       0000206A 00 00 00 00 00 00 00 00 00 00 
       00002074 00 00 00 00 00 00 00 00 00 00 
       0000207E 00 00 00 00 00 00 00 00 00 00 
       00002088 00 00 00 00 00 00 00 00 00 00 
       00002092 00 00 00 00 00 00 00 00 00 00 
       0000209C 00 00 00 00 00 00 00 00 00 00 
       000020A6 00 00 00 00 00 00 00 00 00 00 
       000020B0 00 00 00 00 00 00 00 00 00 00 
       000020BA 00 00 00 00 00 00 00 00 00 00 
       000020C4 00 00 00 00 00 00 00 00 00 00 
       000020CE 00 00 00 00 00 00 00 00 00 00 
       000020D8 00 00 00 00 00 00 00 00 00 00 
       000020E2 00 00 00 00 00 00 00 00 00 00 
       000020EC 00 00 00 00 00 00 00 00 00 00 
       000020F6 00 00 00 00 00 00 00 00 00 00 
       00002100 00 00 00 00 00 00 00 00 00 00 
       0000210A 00 00 00 00 00 00 00 00 00 00 
       00002114 00 00 00 00 00 00 00 00 00 00 
       0000211E 00 00 00 00 00 00 00 00 00 00 
       00002128 00 00 00 00 00 00 00 00 00 00 
       00002132 00 00 00 00 00 00 00 00 00 00 
       0000213C 00 00 00 00 00 00 00 00 00 00 
       00002146 00 00 00 00 00 00 00 00 00 00 
       00002150 00 00 00 00 00 00 00 00 00 00 
       0000215A 00 00 00 00 00 00 00 00 00 00 
       00002164 00 00 00 00 00 00 00 00 00 00 
       0000216E 00 00 00 00 00 00 00 00 00 00 
       00002178 00 00 00 00 00 00 00 00 00 00 
       00002182 00 00 00 00 00 00 00 00 00 00 
       0000218C 00 00 00 00 00 00 00 00 00 00 
       00002196 00 00 00 00 00 00 00 00 00 00 
       000021A0 00 00 00 00 00 00 00 00 00 00 
       000021AA 00 00 00 00 00 00 00 00 00 00 
       000021B4 00 00 00 00 00 00 00 00 00 00 
       000021BE 00 00 00 00 00 00 00 00 00 00 
       000021C8 00 00 00 00 00 00 00 00 00 00 
       000021D2 00 00 00 00 00 00 00 00 00 00 
       000021DC 00 00 00 00 00 00 00 00 00 00 
       000021E6 00 00 00 00 00 00 00 00 00 00 
       000021F0 00 00 00 00 00 00 00 00 00 00 
       000021FA 00 00 00 00 00 00 00 00 00 00 
       00002204 00 00 00 00 00 00 00 00 00 00 
       0000220E 00 00 00 00 00 00 00 00 00 00 
       00002218 00 00 00 00 00 00 00 00 00 00 
       00002222 00 00 00 00 00 00 00 00 00 00 
       0000222C 00 00 00 00 00 00 00 00 00 00 
       00002236 00 00 00 00 00 00 00 00 00 00 
       00002240 00 00 00 00 00 00 00 00 00 00 
       0000224A 00 00 00 00 00 00 00 00 00 00 
       00002254 00 00 00 00 00 00 00 00 00 00 
       0000225E 00 00 00 00 00 00 00 00 00 00 
       00002268 00 00 00 00 00 00 00 00 00 00 
       00002272 00 00 00 00 00 00 00 00 00 00 
       0000227C 00 00 00 00 00 00 00 00 00 00 
       00002286 00 00 00 00 00 00 00 00 00 00 
       00002290 00 00 00 00 00 00 00 00 00 00 
       0000229A 00 00 00 00 00 00 00 00 00 00 
       000022A4 00 00 00 00 00 00 00 00 00 00 
       000022AE 00 00 00 00 00 00 00 00 00 00 
       000022B8 00 00 00 00 00 00 00 00 00 00 
       000022C2 00 00 00 00 00 00 00 00 00 00 
       000022CC 00 00 00 00 00 00 00 00 00 00 
       000022D6 00 00 00 00 00 00 00 00 00 00 
       000022E0 00 00 00 00 00 00 00 00 00 00 
       000022EA 00 00 00 00 00 00 00 00 00 00 
       000022F4 00 00 00 00 00 00 00 00 00 00 
       000022FE 00 00 00 00 00 00 00 00 00 00 
       00002308 00 00 00 00 00 00 00 00 00 00 
       00002312 00 00 00 00 00 00 00 00 00 00 
       0000231C 00 00 00 00 00 00 00 00 00 00 
       00002326 00 00 00 00 00 00 00 00 00 00 
       00002330 00 00 00 00 00 00 00 00 00 00 
       0000233A 00 00 00 00 00 00 00 00 00 00 
       00002344 00 00 00 00 00 00 00 00 00 00 
       0000234E 00 00 00 00 00 00 00 00 00 00 
       00002358 00 00 00 00 00 00 00 00 00 00 
       00002362 00 00 00 00 00 00 00 00 00 00 
       0000236C 00 00 00 00 00 00 00 00 00 00 
       00002376 00 00 00 00 00 00 00 00 00 00 
       00002380 00 00 00 00 00 00 00 00 00 00 
       0000238A 00 00 00 00 00 00 00 00 00 00 
       00002394 00 00 00 00 00 00 00 00 00 00 
       0000239E 00 00 00 00 00 00 00 00 00 00 
   751 000023A8                                 	GLOBAL	_face
   752                                          [SECTION .data]
   753 000023A8 00 00 00 00 00 00 00 00         	ALIGNB	16
   754 000023B0                                 _face:
   755 000023B0 00 00 00 00 00 00 00 00 00 00   	RESB	4500
       000023BA 00 00 00 00 00 00 00 00 00 00 
       000023C4 00 00 00 00 00 00 00 00 00 00 
       000023CE 00 00 00 00 00 00 00 00 00 00 
       000023D8 00 00 00 00 00 00 00 00 00 00 
       000023E2 00 00 00 00 00 00 00 00 00 00 
       000023EC 00 00 00 00 00 00 00 00 00 00 
       000023F6 00 00 00 00 00 00 00 00 00 00 
       00002400 00 00 00 00 00 00 00 00 00 00 
       0000240A 00 00 00 00 00 00 00 00 00 00 
       00002414 00 00 00 00 00 00 00 00 00 00 
       0000241E 00 00 00 00 00 00 00 00 00 00 
       00002428 00 00 00 00 00 00 00 00 00 00 
       00002432 00 00 00 00 00 00 00 00 00 00 
       0000243C 00 00 00 00 00 00 00 00 00 00 
       00002446 00 00 00 00 00 00 00 00 00 00 
       00002450 00 00 00 00 00 00 00 00 00 00 
       0000245A 00 00 00 00 00 00 00 00 00 00 
       00002464 00 00 00 00 00 00 00 00 00 00 
       0000246E 00 00 00 00 00 00 00 00 00 00 
       00002478 00 00 00 00 00 00 00 00 00 00 
       00002482 00 00 00 00 00 00 00 00 00 00 
       0000248C 00 00 00 00 00 00 00 00 00 00 
       00002496 00 00 00 00 00 00 00 00 00 00 
       000024A0 00 00 00 00 00 00 00 00 00 00 
       000024AA 00 00 00 00 00 00 00 00 00 00 
       000024B4 00 00 00 00 00 00 00 00 00 00 
       000024BE 00 00 00 00 00 00 00 00 00 00 
       000024C8 00 00 00 00 00 00 00 00 00 00 
       000024D2 00 00 00 00 00 00 00 00 00 00 
       000024DC 00 00 00 00 00 00 00 00 00 00 
       000024E6 00 00 00 00 00 00 00 00 00 00 
       000024F0 00 00 00 00 00 00 00 00 00 00 
       000024FA 00 00 00 00 00 00 00 00 00 00 
       00002504 00 00 00 00 00 00 00 00 00 00 
       0000250E 00 00 00 00 00 00 00 00 00 00 
       00002518 00 00 00 00 00 00 00 00 00 00 
       00002522 00 00 00 00 00 00 00 00 00 00 
       0000252C 00 00 00 00 00 00 00 00 00 00 
       00002536 00 00 00 00 00 00 00 00 00 00 
       00002540 00 00 00 00 00 00 00 00 00 00 
       0000254A 00 00 00 00 00 00 00 00 00 00 
       00002554 00 00 00 00 00 00 00 00 00 00 
       0000255E 00 00 00 00 00 00 00 00 00 00 
       00002568 00 00 00 00 00 00 00 00 00 00 
       00002572 00 00 00 00 00 00 00 00 00 00 
       0000257C 00 00 00 00 00 00 00 00 00 00 
       00002586 00 00 00 00 00 00 00 00 00 00 
       00002590 00 00 00 00 00 00 00 00 00 00 
       0000259A 00 00 00 00 00 00 00 00 00 00 
       000025A4 00 00 00 00 00 00 00 00 00 00 
       000025AE 00 00 00 00 00 00 00 00 00 00 
       000025B8 00 00 00 00 00 00 00 00 00 00 
       000025C2 00 00 00 00 00 00 00 00 00 00 
       000025CC 00 00 00 00 00 00 00 00 00 00 
       000025D6 00 00 00 00 00 00 00 00 00 00 
       000025E0 00 00 00 00 00 00 00 00 00 00 
       000025EA 00 00 00 00 00 00 00 00 00 00 
       000025F4 00 00 00 00 00 00 00 00 00 00 
       000025FE 00 00 00 00 00 00 00 00 00 00 
       00002608 00 00 00 00 00 00 00 00 00 00 
       00002612 00 00 00 00 00 00 00 00 00 00 
       0000261C 00 00 00 00 00 00 00 00 00 00 
       00002626 00 00 00 00 00 00 00 00 00 00 
       00002630 00 00 00 00 00 00 00 00 00 00 
       0000263A 00 00 00 00 00 00 00 00 00 00 
       00002644 00 00 00 00 00 00 00 00 00 00 
       0000264E 00 00 00 00 00 00 00 00 00 00 
       00002658 00 00 00 00 00 00 00 00 00 00 
       00002662 00 00 00 00 00 00 00 00 00 00 
       0000266C 00 00 00 00 00 00 00 00 00 00 
       00002676 00 00 00 00 00 00 00 00 00 00 
       00002680 00 00 00 00 00 00 00 00 00 00 
       0000268A 00 00 00 00 00 00 00 00 00 00 
       00002694 00 00 00 00 00 00 00 00 00 00 
       0000269E 00 00 00 00 00 00 00 00 00 00 
       000026A8 00 00 00 00 00 00 00 00 00 00 
       000026B2 00 00 00 00 00 00 00 00 00 00 
       000026BC 00 00 00 00 00 00 00 00 00 00 
       000026C6 00 00 00 00 00 00 00 00 00 00 
       000026D0 00 00 00 00 00 00 00 00 00 00 
       000026DA 00 00 00 00 00 00 00 00 00 00 
       000026E4 00 00 00 00 00 00 00 00 00 00 
       000026EE 00 00 00 00 00 00 00 00 00 00 
       000026F8 00 00 00 00 00 00 00 00 00 00 
       00002702 00 00 00 00 00 00 00 00 00 00 
       0000270C 00 00 00 00 00 00 00 00 00 00 
       00002716 00 00 00 00 00 00 00 00 00 00 
       00002720 00 00 00 00 00 00 00 00 00 00 
       0000272A 00 00 00 00 00 00 00 00 00 00 
       00002734 00 00 00 00 00 00 00 00 00 00 
       0000273E 00 00 00 00 00 00 00 00 00 00 
       00002748 00 00 00 00 00 00 00 00 00 00 
       00002752 00 00 00 00 00 00 00 00 00 00 
       0000275C 00 00 00 00 00 00 00 00 00 00 
       00002766 00 00 00 00 00 00 00 00 00 00 
       00002770 00 00 00 00 00 00 00 00 00 00 
       0000277A 00 00 00 00 00 00 00 00 00 00 
       00002784 00 00 00 00 00 00 00 00 00 00 
       0000278E 00 00 00 00 00 00 00 00 00 00 
       00002798 00 00 00 00 00 00 00 00 00 00 
       000027A2 00 00 00 00 00 00 00 00 00 00 
       000027AC 00 00 00 00 00 00 00 00 00 00 
       000027B6 00 00 00 00 00 00 00 00 00 00 
       000027C0 00 00 00 00 00 00 00 00 00 00 
       000027CA 00 00 00 00 00 00 00 00 00 00 
       000027D4 00 00 00 00 00 00 00 00 00 00 
       000027DE 00 00 00 00 00 00 00 00 00 00 
       000027E8 00 00 00 00 00 00 00 00 00 00 
       000027F2 00 00 00 00 00 00 00 00 00 00 
       000027FC 00 00 00 00 00 00 00 00 00 00 
       00002806 00 00 00 00 00 00 00 00 00 00 
       00002810 00 00 00 00 00 00 00 00 00 00 
       0000281A 00 00 00 00 00 00 00 00 00 00 
       00002824 00 00 00 00 00 00 00 00 00 00 
       0000282E 00 00 00 00 00 00 00 00 00 00 
       00002838 00 00 00 00 00 00 00 00 00 00 
       00002842 00 00 00 00 00 00 00 00 00 00 
       0000284C 00 00 00 00 00 00 00 00 00 00 
       00002856 00 00 00 00 00 00 00 00 00 00 
       00002860 00 00 00 00 00 00 00 00 00 00 
       0000286A 00 00 00 00 00 00 00 00 00 00 
       00002874 00 00 00 00 00 00 00 00 00 00 
       0000287E 00 00 00 00 00 00 00 00 00 00 
       00002888 00 00 00 00 00 00 00 00 00 00 
       00002892 00 00 00 00 00 00 00 00 00 00 
       0000289C 00 00 00 00 00 00 00 00 00 00 
       000028A6 00 00 00 00 00 00 00 00 00 00 
       000028B0 00 00 00 00 00 00 00 00 00 00 
       000028BA 00 00 00 00 00 00 00 00 00 00 
       000028C4 00 00 00 00 00 00 00 00 00 00 
       000028CE 00 00 00 00 00 00 00 00 00 00 
       000028D8 00 00 00 00 00 00 00 00 00 00 
       000028E2 00 00 00 00 00 00 00 00 00 00 
       000028EC 00 00 00 00 00 00 00 00 00 00 
       000028F6 00 00 00 00 00 00 00 00 00 00 
       00002900 00 00 00 00 00 00 00 00 00 00 
       0000290A 00 00 00 00 00 00 00 00 00 00 
       00002914 00 00 00 00 00 00 00 00 00 00 
       0000291E 00 00 00 00 00 00 00 00 00 00 
       00002928 00 00 00 00 00 00 00 00 00 00 
       00002932 00 00 00 00 00 00 00 00 00 00 
       0000293C 00 00 00 00 00 00 00 00 00 00 
       00002946 00 00 00 00 00 00 00 00 00 00 
       00002950 00 00 00 00 00 00 00 00 00 00 
       0000295A 00 00 00 00 00 00 00 00 00 00 
       00002964 00 00 00 00 00 00 00 00 00 00 
       0000296E 00 00 00 00 00 00 00 00 00 00 
       00002978 00 00 00 00 00 00 00 00 00 00 
       00002982 00 00 00 00 00 00 00 00 00 00 
       0000298C 00 00 00 00 00 00 00 00 00 00 
       00002996 00 00 00 00 00 00 00 00 00 00 
       000029A0 00 00 00 00 00 00 00 00 00 00 
       000029AA 00 00 00 00 00 00 00 00 00 00 
       000029B4 00 00 00 00 00 00 00 00 00 00 
       000029BE 00 00 00 00 00 00 00 00 00 00 
       000029C8 00 00 00 00 00 00 00 00 00 00 
       000029D2 00 00 00 00 00 00 00 00 00 00 
       000029DC 00 00 00 00 00 00 00 00 00 00 
       000029E6 00 00 00 00 00 00 00 00 00 00 
       000029F0 00 00 00 00 00 00 00 00 00 00 
       000029FA 00 00 00 00 00 00 00 00 00 00 
       00002A04 00 00 00 00 00 00 00 00 00 00 
       00002A0E 00 00 00 00 00 00 00 00 00 00 
       00002A18 00 00 00 00 00 00 00 00 00 00 
       00002A22 00 00 00 00 00 00 00 00 00 00 
       00002A2C 00 00 00 00 00 00 00 00 00 00 
       00002A36 00 00 00 00 00 00 00 00 00 00 
       00002A40 00 00 00 00 00 00 00 00 00 00 
       00002A4A 00 00 00 00 00 00 00 00 00 00 
       00002A54 00 00 00 00 00 00 00 00 00 00 
       00002A5E 00 00 00 00 00 00 00 00 00 00 
       00002A68 00 00 00 00 00 00 00 00 00 00 
       00002A72 00 00 00 00 00 00 00 00 00 00 
       00002A7C 00 00 00 00 00 00 00 00 00 00 
       00002A86 00 00 00 00 00 00 00 00 00 00 
       00002A90 00 00 00 00 00 00 00 00 00 00 
       00002A9A 00 00 00 00 00 00 00 00 00 00 
       00002AA4 00 00 00 00 00 00 00 00 00 00 
       00002AAE 00 00 00 00 00 00 00 00 00 00 
       00002AB8 00 00 00 00 00 00 00 00 00 00 
       00002AC2 00 00 00 00 00 00 00 00 00 00 
       00002ACC 00 00 00 00 00 00 00 00 00 00 
       00002AD6 00 00 00 00 00 00 00 00 00 00 
       00002AE0 00 00 00 00 00 00 00 00 00 00 
       00002AEA 00 00 00 00 00 00 00 00 00 00 
       00002AF4 00 00 00 00 00 00 00 00 00 00 
       00002AFE 00 00 00 00 00 00 00 00 00 00 
       00002B08 00 00 00 00 00 00 00 00 00 00 
       00002B12 00 00 00 00 00 00 00 00 00 00 
       00002B1C 00 00 00 00 00 00 00 00 00 00 
       00002B26 00 00 00 00 00 00 00 00 00 00 
       00002B30 00 00 00 00 00 00 00 00 00 00 
       00002B3A 00 00 00 00 00 00 00 00 00 00 
       00002B44 00 00 00 00 00 00 00 00 00 00 
       00002B4E 00 00 00 00 00 00 00 00 00 00 
       00002B58 00 00 00 00 00 00 00 00 00 00 
       00002B62 00 00 00 00 00 00 00 00 00 00 
       00002B6C 00 00 00 00 00 00 00 00 00 00 
       00002B76 00 00 00 00 00 00 00 00 00 00 
       00002B80 00 00 00 00 00 00 00 00 00 00 
       00002B8A 00 00 00 00 00 00 00 00 00 00 
       00002B94 00 00 00 00 00 00 00 00 00 00 
       00002B9E 00 00 00 00 00 00 00 00 00 00 
       00002BA8 00 00 00 00 00 00 00 00 00 00 
       00002BB2 00 00 00 00 00 00 00 00 00 00 
       00002BBC 00 00 00 00 00 00 00 00 00 00 
       00002BC6 00 00 00 00 00 00 00 00 00 00 
       00002BD0 00 00 00 00 00 00 00 00 00 00 
       00002BDA 00 00 00 00 00 00 00 00 00 00 
       00002BE4 00 00 00 00 00 00 00 00 00 00 
       00002BEE 00 00 00 00 00 00 00 00 00 00 
       00002BF8 00 00 00 00 00 00 00 00 00 00 
       00002C02 00 00 00 00 00 00 00 00 00 00 
       00002C0C 00 00 00 00 00 00 00 00 00 00 
       00002C16 00 00 00 00 00 00 00 00 00 00 
       00002C20 00 00 00 00 00 00 00 00 00 00 
       00002C2A 00 00 00 00 00 00 00 00 00 00 
       00002C34 00 00 00 00 00 00 00 00 00 00 
       00002C3E 00 00 00 00 00 00 00 00 00 00 
       00002C48 00 00 00 00 00 00 00 00 00 00 
       00002C52 00 00 00 00 00 00 00 00 00 00 
       00002C5C 00 00 00 00 00 00 00 00 00 00 
       00002C66 00 00 00 00 00 00 00 00 00 00 
       00002C70 00 00 00 00 00 00 00 00 00 00 
       00002C7A 00 00 00 00 00 00 00 00 00 00 
       00002C84 00 00 00 00 00 00 00 00 00 00 
       00002C8E 00 00 00 00 00 00 00 00 00 00 
       00002C98 00 00 00 00 00 00 00 00 00 00 
       00002CA2 00 00 00 00 00 00 00 00 00 00 
       00002CAC 00 00 00 00 00 00 00 00 00 00 
       00002CB6 00 00 00 00 00 00 00 00 00 00 
       00002CC0 00 00 00 00 00 00 00 00 00 00 
       00002CCA 00 00 00 00 00 00 00 00 00 00 
       00002CD4 00 00 00 00 00 00 00 00 00 00 
       00002CDE 00 00 00 00 00 00 00 00 00 00 
       00002CE8 00 00 00 00 00 00 00 00 00 00 
       00002CF2 00 00 00 00 00 00 00 00 00 00 
       00002CFC 00 00 00 00 00 00 00 00 00 00 
       00002D06 00 00 00 00 00 00 00 00 00 00 
       00002D10 00 00 00 00 00 00 00 00 00 00 
       00002D1A 00 00 00 00 00 00 00 00 00 00 
       00002D24 00 00 00 00 00 00 00 00 00 00 
       00002D2E 00 00 00 00 00 00 00 00 00 00 
       00002D38 00 00 00 00 00 00 00 00 00 00 
       00002D42 00 00 00 00 00 00 00 00 00 00 
       00002D4C 00 00 00 00 00 00 00 00 00 00 
       00002D56 00 00 00 00 00 00 00 00 00 00 
       00002D60 00 00 00 00 00 00 00 00 00 00 
       00002D6A 00 00 00 00 00 00 00 00 00 00 
       00002D74 00 00 00 00 00 00 00 00 00 00 
       00002D7E 00 00 00 00 00 00 00 00 00 00 
       00002D88 00 00 00 00 00 00 00 00 00 00 
       00002D92 00 00 00 00 00 00 00 00 00 00 
       00002D9C 00 00 00 00 00 00 00 00 00 00 
       00002DA6 00 00 00 00 00 00 00 00 00 00 
       00002DB0 00 00 00 00 00 00 00 00 00 00 
       00002DBA 00 00 00 00 00 00 00 00 00 00 
       00002DC4 00 00 00 00 00 00 00 00 00 00 
       00002DCE 00 00 00 00 00 00 00 00 00 00 
       00002DD8 00 00 00 00 00 00 00 00 00 00 
       00002DE2 00 00 00 00 00 00 00 00 00 00 
       00002DEC 00 00 00 00 00 00 00 00 00 00 
       00002DF6 00 00 00 00 00 00 00 00 00 00 
       00002E00 00 00 00 00 00 00 00 00 00 00 
       00002E0A 00 00 00 00 00 00 00 00 00 00 
       00002E14 00 00 00 00 00 00 00 00 00 00 
       00002E1E 00 00 00 00 00 00 00 00 00 00 
       00002E28 00 00 00 00 00 00 00 00 00 00 
       00002E32 00 00 00 00 00 00 00 00 00 00 
       00002E3C 00 00 00 00 00 00 00 00 00 00 
       00002E46 00 00 00 00 00 00 00 00 00 00 
       00002E50 00 00 00 00 00 00 00 00 00 00 
       00002E5A 00 00 00 00 00 00 00 00 00 00 
       00002E64 00 00 00 00 00 00 00 00 00 00 
       00002E6E 00 00 00 00 00 00 00 00 00 00 
       00002E78 00 00 00 00 00 00 00 00 00 00 
       00002E82 00 00 00 00 00 00 00 00 00 00 
       00002E8C 00 00 00 00 00 00 00 00 00 00 
       00002E96 00 00 00 00 00 00 00 00 00 00 
       00002EA0 00 00 00 00 00 00 00 00 00 00 
       00002EAA 00 00 00 00 00 00 00 00 00 00 
       00002EB4 00 00 00 00 00 00 00 00 00 00 
       00002EBE 00 00 00 00 00 00 00 00 00 00 
       00002EC8 00 00 00 00 00 00 00 00 00 00 
       00002ED2 00 00 00 00 00 00 00 00 00 00 
       00002EDC 00 00 00 00 00 00 00 00 00 00 
       00002EE6 00 00 00 00 00 00 00 00 00 00 
       00002EF0 00 00 00 00 00 00 00 00 00 00 
       00002EFA 00 00 00 00 00 00 00 00 00 00 
       00002F04 00 00 00 00 00 00 00 00 00 00 
       00002F0E 00 00 00 00 00 00 00 00 00 00 
       00002F18 00 00 00 00 00 00 00 00 00 00 
       00002F22 00 00 00 00 00 00 00 00 00 00 
       00002F2C 00 00 00 00 00 00 00 00 00 00 
       00002F36 00 00 00 00 00 00 00 00 00 00 
       00002F40 00 00 00 00 00 00 00 00 00 00 
       00002F4A 00 00 00 00 00 00 00 00 00 00 
       00002F54 00 00 00 00 00 00 00 00 00 00 
       00002F5E 00 00 00 00 00 00 00 00 00 00 
       00002F68 00 00 00 00 00 00 00 00 00 00 
       00002F72 00 00 00 00 00 00 00 00 00 00 
       00002F7C 00 00 00 00 00 00 00 00 00 00 
       00002F86 00 00 00 00 00 00 00 00 00 00 
       00002F90 00 00 00 00 00 00 00 00 00 00 
       00002F9A 00 00 00 00 00 00 00 00 00 00 
       00002FA4 00 00 00 00 00 00 00 00 00 00 
       00002FAE 00 00 00 00 00 00 00 00 00 00 
       00002FB8 00 00 00 00 00 00 00 00 00 00 
       00002FC2 00 00 00 00 00 00 00 00 00 00 
       00002FCC 00 00 00 00 00 00 00 00 00 00 
       00002FD6 00 00 00 00 00 00 00 00 00 00 
       00002FE0 00 00 00 00 00 00 00 00 00 00 
       00002FEA 00 00 00 00 00 00 00 00 00 00 
       00002FF4 00 00 00 00 00 00 00 00 00 00 
       00002FFE 00 00 00 00 00 00 00 00 00 00 
       00003008 00 00 00 00 00 00 00 00 00 00 
       00003012 00 00 00 00 00 00 00 00 00 00 
       0000301C 00 00 00 00 00 00 00 00 00 00 
       00003026 00 00 00 00 00 00 00 00 00 00 
       00003030 00 00 00 00 00 00 00 00 00 00 
       0000303A 00 00 00 00 00 00 00 00 00 00 
       00003044 00 00 00 00 00 00 00 00 00 00 
       0000304E 00 00 00 00 00 00 00 00 00 00 
       00003058 00 00 00 00 00 00 00 00 00 00 
       00003062 00 00 00 00 00 00 00 00 00 00 
       0000306C 00 00 00 00 00 00 00 00 00 00 
       00003076 00 00 00 00 00 00 00 00 00 00 
       00003080 00 00 00 00 00 00 00 00 00 00 
       0000308A 00 00 00 00 00 00 00 00 00 00 
       00003094 00 00 00 00 00 00 00 00 00 00 
       0000309E 00 00 00 00 00 00 00 00 00 00 
       000030A8 00 00 00 00 00 00 00 00 00 00 
       000030B2 00 00 00 00 00 00 00 00 00 00 
       000030BC 00 00 00 00 00 00 00 00 00 00 
       000030C6 00 00 00 00 00 00 00 00 00 00 
       000030D0 00 00 00 00 00 00 00 00 00 00 
       000030DA 00 00 00 00 00 00 00 00 00 00 
       000030E4 00 00 00 00 00 00 00 00 00 00 
       000030EE 00 00 00 00 00 00 00 00 00 00 
       000030F8 00 00 00 00 00 00 00 00 00 00 
       00003102 00 00 00 00 00 00 00 00 00 00 
       0000310C 00 00 00 00 00 00 00 00 00 00 
       00003116 00 00 00 00 00 00 00 00 00 00 
       00003120 00 00 00 00 00 00 00 00 00 00 
       0000312A 00 00 00 00 00 00 00 00 00 00 
       00003134 00 00 00 00 00 00 00 00 00 00 
       0000313E 00 00 00 00 00 00 00 00 00 00 
       00003148 00 00 00 00 00 00 00 00 00 00 
       00003152 00 00 00 00 00 00 00 00 00 00 
       0000315C 00 00 00 00 00 00 00 00 00 00 
       00003166 00 00 00 00 00 00 00 00 00 00 
       00003170 00 00 00 00 00 00 00 00 00 00 
       0000317A 00 00 00 00 00 00 00 00 00 00 
       00003184 00 00 00 00 00 00 00 00 00 00 
       0000318E 00 00 00 00 00 00 00 00 00 00 
       00003198 00 00 00 00 00 00 00 00 00 00 
       000031A2 00 00 00 00 00 00 00 00 00 00 
       000031AC 00 00 00 00 00 00 00 00 00 00 
       000031B6 00 00 00 00 00 00 00 00 00 00 
       000031C0 00 00 00 00 00 00 00 00 00 00 
       000031CA 00 00 00 00 00 00 00 00 00 00 
       000031D4 00 00 00 00 00 00 00 00 00 00 
       000031DE 00 00 00 00 00 00 00 00 00 00 
       000031E8 00 00 00 00 00 00 00 00 00 00 
       000031F2 00 00 00 00 00 00 00 00 00 00 
       000031FC 00 00 00 00 00 00 00 00 00 00 
       00003206 00 00 00 00 00 00 00 00 00 00 
       00003210 00 00 00 00 00 00 00 00 00 00 
       0000321A 00 00 00 00 00 00 00 00 00 00 
       00003224 00 00 00 00 00 00 00 00 00 00 
       0000322E 00 00 00 00 00 00 00 00 00 00 
       00003238 00 00 00 00 00 00 00 00 00 00 
       00003242 00 00 00 00 00 00 00 00 00 00 
       0000324C 00 00 00 00 00 00 00 00 00 00 
       00003256 00 00 00 00 00 00 00 00 00 00 
       00003260 00 00 00 00 00 00 00 00 00 00 
       0000326A 00 00 00 00 00 00 00 00 00 00 
       00003274 00 00 00 00 00 00 00 00 00 00 
       0000327E 00 00 00 00 00 00 00 00 00 00 
       00003288 00 00 00 00 00 00 00 00 00 00 
       00003292 00 00 00 00 00 00 00 00 00 00 
       0000329C 00 00 00 00 00 00 00 00 00 00 
       000032A6 00 00 00 00 00 00 00 00 00 00 
       000032B0 00 00 00 00 00 00 00 00 00 00 
       000032BA 00 00 00 00 00 00 00 00 00 00 
       000032C4 00 00 00 00 00 00 00 00 00 00 
       000032CE 00 00 00 00 00 00 00 00 00 00 
       000032D8 00 00 00 00 00 00 00 00 00 00 
       000032E2 00 00 00 00 00 00 00 00 00 00 
       000032EC 00 00 00 00 00 00 00 00 00 00 
       000032F6 00 00 00 00 00 00 00 00 00 00 
       00003300 00 00 00 00 00 00 00 00 00 00 
       0000330A 00 00 00 00 00 00 00 00 00 00 
       00003314 00 00 00 00 00 00 00 00 00 00 
       0000331E 00 00 00 00 00 00 00 00 00 00 
       00003328 00 00 00 00 00 00 00 00 00 00 
       00003332 00 00 00 00 00 00 00 00 00 00 
       0000333C 00 00 00 00 00 00 00 00 00 00 
       00003346 00 00 00 00 00 00 00 00 00 00 
       00003350 00 00 00 00 00 00 00 00 00 00 
       0000335A 00 00 00 00 00 00 00 00 00 00 
       00003364 00 00 00 00 00 00 00 00 00 00 
       0000336E 00 00 00 00 00 00 00 00 00 00 
       00003378 00 00 00 00 00 00 00 00 00 00 
       00003382 00 00 00 00 00 00 00 00 00 00 
       0000338C 00 00 00 00 00 00 00 00 00 00 
       00003396 00 00 00 00 00 00 00 00 00 00 
       000033A0 00 00 00 00 00 00 00 00 00 00 
       000033AA 00 00 00 00 00 00 00 00 00 00 
       000033B4 00 00 00 00 00 00 00 00 00 00 
       000033BE 00 00 00 00 00 00 00 00 00 00 
       000033C8 00 00 00 00 00 00 00 00 00 00 
       000033D2 00 00 00 00 00 00 00 00 00 00 
       000033DC 00 00 00 00 00 00 00 00 00 00 
       000033E6 00 00 00 00 00 00 00 00 00 00 
       000033F0 00 00 00 00 00 00 00 00 00 00 
       000033FA 00 00 00 00 00 00 00 00 00 00 
       00003404 00 00 00 00 00 00 00 00 00 00 
       0000340E 00 00 00 00 00 00 00 00 00 00 
       00003418 00 00 00 00 00 00 00 00 00 00 
       00003422 00 00 00 00 00 00 00 00 00 00 
       0000342C 00 00 00 00 00 00 00 00 00 00 
       00003436 00 00 00 00 00 00 00 00 00 00 
       00003440 00 00 00 00 00 00 00 00 00 00 
       0000344A 00 00 00 00 00 00 00 00 00 00 
       00003454 00 00 00 00 00 00 00 00 00 00 
       0000345E 00 00 00 00 00 00 00 00 00 00 
       00003468 00 00 00 00 00 00 00 00 00 00 
       00003472 00 00 00 00 00 00 00 00 00 00 
       0000347C 00 00 00 00 00 00 00 00 00 00 
       00003486 00 00 00 00 00 00 00 00 00 00 
       00003490 00 00 00 00 00 00 00 00 00 00 
       0000349A 00 00 00 00 00 00 00 00 00 00 
       000034A4 00 00 00 00 00 00 00 00 00 00 
       000034AE 00 00 00 00 00 00 00 00 00 00 
       000034B8 00 00 00 00 00 00 00 00 00 00 
       000034C2 00 00 00 00 00 00 00 00 00 00 
       000034CC 00 00 00 00 00 00 00 00 00 00 
       000034D6 00 00 00 00 00 00 00 00 00 00 
       000034E0 00 00 00 00 00 00 00 00 00 00 
       000034EA 00 00 00 00 00 00 00 00 00 00 
       000034F4 00 00 00 00 00 00 00 00 00 00 
       000034FE 00 00 00 00 00 00 00 00 00 00 
       00003508 00 00 00 00 00 00 00 00 00 00 
       00003512 00 00 00 00 00 00 00 00 00 00 
       0000351C 00 00 00 00 00 00 00 00 00 00 
       00003526 00 00 00 00 00 00 00 00 00 00 
       00003530 00 00 00 00 00 00 00 00 00 00 
       0000353A 00 00 00 00 00 00 00 00 00 00 
